TN:SmartCalc_V2_test_cov
SF:/Users/bernarda/Projects_s21/cpp/SmartCalc/SmartCalc2/model/check.cc
FN:9,_Z11CheckLengthNSt7__cxx1112basic_stringIcSt11char_traitsIcESaIcEEE
FNDA:68,_Z11CheckLengthNSt7__cxx1112basic_stringIcSt11char_traitsIcESaIcEEE
FN:15,_Z19CheckNumberOfPointsi
FNDA:1,_Z19CheckNumberOfPointsi
FN:20,_Z10CheckRangedd
FNDA:1,_Z10CheckRangedd
FNF:3
FNH:3
DA:9,68
DA:10,68
DA:11,1
DA:12,67
DA:13,65
DA:15,1
DA:16,1
DA:17,0
DA:18,1
DA:20,1
DA:21,1
DA:22,0
DA:23,1
DA:24,0
DA:25,1
LF:15
LH:12
end_of_record
TN:SmartCalc_V2_test_cov
SF:/Users/bernarda/Projects_s21/cpp/SmartCalc/SmartCalc2/model/credit.cc
FN:6,_ZN6Credit8LoadDataEidid
FNDA:3,_ZN6Credit8LoadDataEidid
FN:17,_ZN6Credit22CalculateAnnuityCreditEv
FNDA:2,_ZN6Credit22CalculateAnnuityCreditEv
FN:27,_ZN6Credit29CalculateDifferentiatedCreditEv
FNDA:1,_ZN6Credit29CalculateDifferentiatedCreditEv
FN:40,_ZN6Credit15CalculateCreditEidid
FNDA:3,_ZN6Credit15CalculateCreditEidid
FN:50,_ZNK6Credit17GetMonthlyPaymentEv
FNDA:8,_ZNK6Credit17GetMonthlyPaymentEv
FN:54,_ZNK6Credit15GetTotalPaymentEv
FNDA:3,_ZNK6Credit15GetTotalPaymentEv
FN:56,_ZNK6Credit22GetOverpaymentOnCreditEv
FNDA:3,_ZNK6Credit22GetOverpaymentOnCreditEv
FNF:7
FNH:7
DA:6,3
DA:8,3
DA:9,3
DA:10,3
DA:11,3
DA:12,3
DA:13,3
DA:14,3
DA:15,3
DA:17,2
DA:18,2
DA:19,2
DA:21,2
DA:22,2
DA:23,2
DA:24,2
DA:25,2
DA:27,1
DA:28,1
DA:29,1
DA:31,7
DA:32,6
DA:33,6
DA:34,6
DA:37,1
DA:38,1
DA:40,3
DA:42,3
DA:43,3
DA:44,1
DA:46,2
DA:48,3
DA:50,8
DA:51,8
DA:54,3
DA:56,3
LF:36
LH:36
end_of_record
TN:SmartCalc_V2_test_cov
SF:/Users/bernarda/Projects_s21/cpp/SmartCalc/SmartCalc2/model/date.cc
FN:5,_ZN4DateC1Eiii
FNDA:0,_ZN4DateC1Eiii
FN:5,_ZN4DateC2Eiii
FNDA:0,_ZN4DateC2Eiii
FN:21,_ZNK4Date6GetDayEv
FNDA:0,_ZNK4Date6GetDayEv
FN:23,_ZNK4Date8GetMonthEv
FNDA:0,_ZNK4Date8GetMonthEv
FN:25,_ZNK4Date7GetYearEv
FNDA:0,_ZNK4Date7GetYearEv
FN:27,_ZN4Date7AddDaysEi
FNDA:0,_ZN4Date7AddDaysEi
FN:29,_ZN4Date9AddMonthsEi
FNDA:0,_ZN4Date9AddMonthsEi
FN:43,_ZN4Date8AddYearsEi
FNDA:0,_ZN4Date8AddYearsEi
FN:57,_ZNK4DateeqERKS_
FNDA:0,_ZNK4DateeqERKS_
FN:68,_ZNK4DateneERKS_
FNDA:0,_ZNK4DateneERKS_
FN:70,_ZNK4DategtERKS_
FNDA:0,_ZNK4DategtERKS_
FN:91,_ZNK4DateltERKS_
FNDA:0,_ZNK4DateltERKS_
FN:112,_ZNK4DateleERKS_
FNDA:0,_ZNK4DateleERKS_
FN:116,_ZNK4DategeERKS_
FNDA:0,_ZNK4DategeERKS_
FN:120,_ZNK4Date10DaysInYearEv
FNDA:0,_ZNK4Date10DaysInYearEv
FN:129,_ZN4Date3AddEiii
FNDA:0,_ZN4Date3AddEiii
FNF:16
FNH:0
DA:5,0
DA:6,0
DA:7,0
DA:8,0
DA:9,0
DA:10,0
DA:11,0
DA:12,0
DA:13,0
DA:14,0
DA:15,0
DA:16,0
DA:17,0
DA:18,0
DA:19,0
DA:5,0
DA:6,0
DA:7,0
DA:8,0
DA:9,0
DA:10,0
DA:11,0
DA:12,0
DA:13,0
DA:14,0
DA:15,0
DA:16,0
DA:17,0
DA:18,0
DA:19,0
DA:21,0
DA:23,0
DA:25,0
DA:27,0
DA:29,0
DA:30,0
DA:31,0
DA:32,0
DA:33,0
DA:34,0
DA:35,0
DA:36,0
DA:38,0
DA:39,0
DA:40,0
DA:41,0
DA:43,0
DA:44,0
DA:45,0
DA:46,0
DA:47,0
DA:48,0
DA:49,0
DA:50,0
DA:52,0
DA:53,0
DA:54,0
DA:55,0
DA:57,0
DA:58,0
DA:59,0
DA:61,0
DA:62,0
DA:64,0
DA:68,0
DA:70,0
DA:71,0
DA:72,0
DA:74,0
DA:75,0
DA:76,0
DA:77,0
DA:79,0
DA:80,0
DA:81,0
DA:82,0
DA:84,0
DA:85,0
DA:87,0
DA:91,0
DA:92,0
DA:93,0
DA:95,0
DA:96,0
DA:97,0
DA:98,0
DA:100,0
DA:101,0
DA:102,0
DA:103,0
DA:105,0
DA:106,0
DA:108,0
DA:112,0
DA:113,0
DA:116,0
DA:117,0
DA:120,0
DA:121,0
DA:122,0
DA:123,0
DA:124,0
DA:126,0
DA:129,0
DA:130,0
DA:131,0
DA:132,0
DA:133,0
DA:134,0
LF:109
LH:0
end_of_record
TN:SmartCalc_V2_test_cov
SF:/Users/bernarda/Projects_s21/cpp/SmartCalc/SmartCalc2/model/deposit.cc
FN:5,_Z18FromDoubleToStringB5cxx11d
FNDA:0,_Z18FromDoubleToStringB5cxx11d
FN:12,_ZN7Deposit16CalculateDepositEd4DateiiddibSt8multimapIS0_St4pairIidESt4lessIS0_ESaIS2_IKS0_S3_EEES9_d
FNDA:0,_ZN7Deposit16CalculateDepositEd4DateiiddibSt8multimapIS0_St4pairIidESt4lessIS0_ESaIS2_IKS0_S3_EEES9_d
FN:28,_ZNK7Deposit18GetAccruedInterestEv
FNDA:0,_ZNK7Deposit18GetAccruedInterestEv
FN:29,_ZNK7Deposit12GetTaxAmountEv
FNDA:0,_ZNK7Deposit12GetTaxAmountEv
FN:30,_ZNK7Deposit33GetDepositAmountByTheEndOfTheTermEv
FNDA:0,_ZNK7Deposit33GetDepositAmountByTheEndOfTheTermEv
FN:34,_ZN7Deposit15LoadDepositDataEd4DateiiddibSt8multimapIS0_St4pairIidESt4lessIS0_ESaIS2_IKS0_S3_EEES9_d
FNDA:0,_ZN7Deposit15LoadDepositDataEd4DateiiddibSt8multimapIS0_St4pairIidESt4lessIS0_ESaIS2_IKS0_S3_EEES9_d
FN:73,_ZN7Deposit11CalculationEv
FNDA:0,_ZN7Deposit11CalculationEv
FN:91,_ZN7Deposit18SetNextPaymentDateEv
FNDA:0,_ZN7Deposit18SetNextPaymentDateEv
FN:120,_ZN7Deposit16CheckPaymentDateEv
FNDA:0,_ZN7Deposit16CheckPaymentDateEv
FN:133,_ZN7Deposit18AddAccruedInterestEv
FNDA:0,_ZN7Deposit18AddAccruedInterestEv
FN:138,_ZN7Deposit23CheckReplenishmentsListEv
FNDA:0,_ZN7Deposit23CheckReplenishmentsListEv
FN:168,_ZN7Deposit27CheckPartialWithdrawalsListEv
FNDA:0,_ZN7Deposit27CheckPartialWithdrawalsListEv
FNF:12
FNH:0
DA:5,0
DA:6,0
DA:7,0
DA:8,0
DA:9,0
DA:12,0
DA:20,0
DA:25,0
DA:26,0
DA:28,0
DA:29,0
DA:30,0
DA:31,0
DA:34,0
DA:42,0
DA:43,0
DA:45,0
DA:46,0
DA:47,0
DA:48,0
DA:49,0
DA:50,0
DA:51,0
DA:52,0
DA:53,0
DA:54,0
DA:55,0
DA:56,0
DA:58,0
DA:59,0
DA:60,0
DA:61,0
DA:62,0
DA:63,0
DA:64,0
DA:65,0
DA:66,0
DA:67,0
DA:68,0
DA:69,0
DA:70,0
DA:71,0
DA:73,0
DA:74,0
DA:75,0
DA:76,0
DA:77,0
DA:78,0
DA:79,0
DA:80,0
DA:81,0
DA:82,0
DA:83,0
DA:85,0
DA:86,0
DA:87,0
DA:88,0
DA:89,0
DA:91,0
DA:92,0
DA:93,0
DA:94,0
DA:95,0
DA:96,0
DA:97,0
DA:98,0
DA:99,0
DA:100,0
DA:101,0
DA:102,0
DA:103,0
DA:104,0
DA:105,0
DA:106,0
DA:107,0
DA:108,0
DA:109,0
DA:110,0
DA:111,0
DA:112,0
DA:113,0
DA:115,0
DA:116,0
DA:118,0
DA:120,0
DA:121,0
DA:122,0
DA:123,0
DA:125,0
DA:126,0
DA:128,0
DA:129,0
DA:131,0
DA:133,0
DA:134,0
DA:135,0
DA:136,0
DA:138,0
DA:139,0
DA:140,0
DA:141,0
DA:142,0
DA:143,0
DA:144,0
DA:145,0
DA:146,0
DA:147,0
DA:148,0
DA:149,0
DA:150,0
DA:151,0
DA:152,0
DA:153,0
DA:154,0
DA:155,0
DA:156,0
DA:157,0
DA:159,0
DA:160,0
DA:162,0
DA:164,0
DA:166,0
DA:168,0
DA:169,0
DA:170,0
DA:171,0
DA:172,0
DA:173,0
DA:174,0
DA:175,0
DA:176,0
DA:177,0
DA:178,0
DA:179,0
DA:180,0
DA:181,0
DA:182,0
DA:184,0
DA:186,0
DA:187,0
DA:188,0
DA:189,0
DA:190,0
DA:191,0
DA:192,0
DA:193,0
DA:194,0
DA:195,0
DA:196,0
DA:197,0
DA:199,0
DA:200,0
DA:202,0
DA:204,0
DA:206,0
LF:155
LH:0
end_of_record
TN:SmartCalc_V2_test_cov
SF:/Users/bernarda/Projects_s21/cpp/SmartCalc/SmartCalc2/model/token.h
FN:85,_ZN5TokenC1Ev
FNDA:155,_ZN5TokenC1Ev
FN:89,_ZN5TokenD1Ev
FNDA:7502,_ZN5TokenD1Ev
FNF:2
FNH:2
DA:85,155
DA:89,7502
LF:2
LH:2
end_of_record
SF:/Users/bernarda/Projects_s21/cpp/SmartCalc/SmartCalc2/model/mathcalculator.cc
FN:3,_ZN14MathCalculatorC2Ev
FNDA:0,_ZN14MathCalculatorC2Ev
FN:3,_ZN14MathCalculatorC1Ev
FNDA:68,_ZN14MathCalculatorC1Ev
FN:5,_ZN14MathCalculator15CalculateAnswerENSt7__cxx1112basic_stringIcSt11char_traitsIcESaIcEEE
FNDA:56,_ZN14MathCalculator15CalculateAnswerENSt7__cxx1112basic_stringIcSt11char_traitsIcESaIcEEE
FN:12,_ZN14MathCalculator15CalculateAnswerENSt7__cxx1112basic_stringIcSt11char_traitsIcESaIcEEES5_
FNDA:11,_ZN14MathCalculator15CalculateAnswerENSt7__cxx1112basic_stringIcSt11char_traitsIcESaIcEEES5_
FN:19,_ZN14MathCalculator14CalculateGraphENSt7__cxx1112basic_stringIcSt11char_traitsIcESaIcEEEidddd
FNDA:1,_ZN14MathCalculator14CalculateGraphENSt7__cxx1112basic_stringIcSt11char_traitsIcESaIcEEEidddd
FN:27,_ZNK14MathCalculator9GetAnswerEv
FNDA:44,_ZNK14MathCalculator9GetAnswerEv
FN:29,_ZNK14MathCalculator8GetGraphEv
FNDA:1,_ZNK14MathCalculator8GetGraphEv
FN:33,_ZN14MathCalculator14LoadExpressionERKNSt7__cxx1112basic_stringIcSt11char_traitsIcESaIcEEE
FNDA:68,_ZN14MathCalculator14LoadExpressionERKNSt7__cxx1112basic_stringIcSt11char_traitsIcESaIcEEE
FN:49,_ZN14MathCalculator5LoadXERKNSt7__cxx1112basic_stringIcSt11char_traitsIcESaIcEEE
FNDA:47,_ZN14MathCalculator5LoadXERKNSt7__cxx1112basic_stringIcSt11char_traitsIcESaIcEEE
FN:57,_ZN14MathCalculator18ConvertToLowercaseENSt7__cxx1112basic_stringIcSt11char_traitsIcESaIcEEE
FNDA:112,_ZN14MathCalculator18ConvertToLowercaseENSt7__cxx1112basic_stringIcSt11char_traitsIcESaIcEEE
FN:65,_ZN14MathCalculator7ParsingEv
FNDA:65,_ZN14MathCalculator7ParsingEv
FN:83,_ZNK14MathCalculator10ReadNumberERNSt7__cxx1112basic_stringIcSt11char_traitsIcESaIcEEERm
FNDA:137,_ZNK14MathCalculator10ReadNumberERNSt7__cxx1112basic_stringIcSt11char_traitsIcESaIcEEERm
FN:96,_ZNK14MathCalculator8ReadWordERNSt7__cxx1112basic_stringIcSt11char_traitsIcESaIcEEERm
FNDA:58,_ZNK14MathCalculator8ReadWordERNSt7__cxx1112basic_stringIcSt11char_traitsIcESaIcEEERm
FN:105,_ZN14MathCalculator9PushTokenENSt7__cxx1112basic_stringIcSt11char_traitsIcESaIcEEE
FNDA:326,_ZN14MathCalculator9PushTokenENSt7__cxx1112basic_stringIcSt11char_traitsIcESaIcEEE
FN:113,_ZN14MathCalculator23FindSpacesAndUnarySignsEv
FNDA:61,_ZN14MathCalculator23FindSpacesAndUnarySignsEv
FN:135,_ZN14MathCalculator21CheckSequenceOfTokensEv
FNDA:60,_ZN14MathCalculator21CheckSequenceOfTokensEv
FN:158,_ZN14MathCalculator21ShuntingYardAlgorithmEv
FNDA:50,_ZN14MathCalculator21ShuntingYardAlgorithmEv
FN:200,_ZN14MathCalculator17FromInputToOutputEv
FNDA:981,_ZN14MathCalculator17FromInputToOutputEv
FN:205,_ZN14MathCalculator16FromInputToStackEv
FNDA:204,_ZN14MathCalculator16FromInputToStackEv
FN:210,_ZN14MathCalculator17FromStackToOutputEv
FNDA:139,_ZN14MathCalculator17FromStackToOutputEv
FN:215,_ZN14MathCalculator5ReadXENSt7__cxx1112basic_stringIcSt11char_traitsIcESaIcEEE
FNDA:47,_ZN14MathCalculator5ReadXENSt7__cxx1112basic_stringIcSt11char_traitsIcESaIcEEE
FN:247,_ZN14MathCalculator26PostfixNotationCalculationEd
FNDA:55,_ZN14MathCalculator26PostfixNotationCalculationEd
FN:251,_ZZN14MathCalculator26PostfixNotationCalculationEdENKUlSt8functionIFddEEE_clES2_
FNDA:50,_ZZN14MathCalculator26PostfixNotationCalculationEdENKUlSt8functionIFddEEE_clES2_
FN:252,_ZZN14MathCalculator26PostfixNotationCalculationEdENKUlSt8functionIFdddEEE0_clES2_
FNDA:93,_ZZN14MathCalculator26PostfixNotationCalculationEdENKUlSt8functionIFdddEEE0_clES2_
FN:257,_ZZN14MathCalculator26PostfixNotationCalculationEdENKUlT_E1_clIDnEEDaS0_
FNDA:148,_ZZN14MathCalculator26PostfixNotationCalculationEdENKUlT_E1_clIDnEEDaS0_
FN:269,_ZN14MathCalculator12PushToResultEv
FNDA:114,_ZN14MathCalculator12PushToResultEv
FN:274,_ZN14MathCalculator12PushToResultEd
FNDA:177,_ZN14MathCalculator12PushToResultEd
FN:279,_ZN14MathCalculator13PopFromResultEv
FNDA:291,_ZN14MathCalculator13PopFromResultEv
FN:285,_ZN14MathCalculator11CalculateXYEidddd
FNDA:1,_ZN14MathCalculator11CalculateXYEidddd
FNF:29
FNH:28
DA:3,68
DA:3,0
DA:5,56
DA:6,56
DA:7,36
DA:8,36
DA:9,36
DA:10,36
DA:12,11
DA:13,11
DA:14,11
DA:15,8
DA:16,8
DA:17,8
DA:19,1
DA:22,1
DA:23,1
DA:24,1
DA:25,1
DA:27,44
DA:29,1
DA:30,1
DA:33,68
DA:34,68
DA:35,68
DA:36,68
DA:37,68
DA:38,68
DA:39,68
DA:40,71
DA:41,65
DA:42,65
DA:43,61
DA:44,60
DA:45,50
DA:46,48
DA:47,48
DA:49,47
DA:50,47
DA:51,47
DA:52,47
DA:53,47
DA:54,44
DA:55,44
DA:57,112
DA:58,112
DA:59,938
DA:60,826
DA:62,112
DA:65,65
DA:66,65
DA:67,524
DA:68,463
DA:69,274
DA:70,274
DA:71,137
DA:72,137
DA:73,326
DA:74,59
DA:76,271
DA:77,271
DA:80,61
DA:81,61
DA:83,137
DA:85,274
DA:87,274
DA:88,274
DA:89,137
DA:90,137
DA:91,137
DA:92,137
DA:93,411
DA:96,58
DA:97,116
DA:99,116
DA:100,116
DA:101,58
DA:102,116
DA:105,326
DA:106,326
DA:107,322
DA:109,4
DA:111,322
DA:113,510
DA:114,510
DA:115,898
DA:116,449
DA:117,8
DA:118,574
DA:119,68
DA:120,65
DA:121,21
DA:122,36
DA:123,18
DA:124,18
DA:126,21
DA:128,420
DA:131,61
DA:132,61
DA:133,60
DA:135,60
DA:136,60
DA:137,2
DA:138,4
DA:140,58
DA:141,422
DA:142,370
DA:143,370
DA:144,18
DA:145,24
DA:147,364
DA:149,52
DA:150,52
DA:151,2
DA:152,4
DA:155,50
DA:156,50
DA:158,457
DA:159,457
DA:160,408
DA:161,139
DA:162,269
DA:163,50
DA:164,219
DA:165,119
DA:166,72
DA:167,194
DA:168,43
DA:169,29
DA:170,17
DA:171,30
DA:173,89
DA:174,130
DA:175,65
DA:176,65
DA:177,104
DA:178,39
DA:180,65
DA:181,64
DA:183,1
DA:185,124
DA:186,60
DA:187,33
DA:189,64
DA:192,86
DA:193,38
DA:194,1
DA:196,37
DA:198,48
DA:200,981
DA:201,981
DA:202,981
DA:203,981
DA:205,204
DA:206,204
DA:207,204
DA:208,204
DA:210,139
DA:211,139
DA:212,139
DA:213,139
DA:215,47
DA:216,50
DA:217,47
DA:218,36
DA:219,36
DA:221,11
DA:222,11
DA:223,6
DA:224,6
DA:226,11
DA:227,14
DA:228,14
DA:229,7
DA:230,7
DA:231,6
DA:232,6
DA:233,6
DA:234,4
DA:235,3
DA:236,3
DA:237,2
DA:238,2
DA:240,1
DA:243,1
DA:247,55
DA:248,55
DA:249,346
DA:250,291
DA:251,341
DA:252,93
DA:253,93
DA:254,93
DA:255,93
DA:256,93
DA:257,148
DA:258,148
DA:259,34
DA:261,114
DA:263,148
DA:264,582
DA:266,55
DA:269,114
DA:270,114
DA:271,114
DA:272,114
DA:274,177
DA:275,177
DA:276,177
DA:277,177
DA:279,291
DA:280,291
DA:281,291
DA:282,291
DA:285,1
DA:287,1
DA:288,1
DA:290,1
DA:291,0
DA:293,1
DA:294,1
DA:296,2
DA:297,1
DA:298,1
DA:299,1
DA:300,12
DA:301,11
DA:302,11
DA:303,11
DA:304,10
DA:306,1
DA:308,11
DA:309,0
DA:310,11
DA:311,0
DA:313,11
DA:316,1
DA:317,1
LF:238
LH:234
end_of_record
TN:SmartCalc_V2_test_cov
SF:/Users/bernarda/Projects_s21/cpp/SmartCalc/SmartCalc2/model/round.cc
FN:5,_Z23RoundToTwoDecimalPlacesd
FNDA:8,_Z23RoundToTwoDecimalPlacesd
FNF:1
FNH:1
DA:5,8
DA:6,8
LF:2
LH:2
end_of_record
TN:SmartCalc_V2_test_cov
SF:/Users/bernarda/Projects_s21/cpp/SmartCalc/SmartCalc2/model/mathcalculator.h
FN:26,_ZN14MathCalculatorD1Ev
FNDA:68,_ZN14MathCalculatorD1Ev
FNF:1
FNH:1
DA:26,68
LF:1
LH:1
end_of_record
SF:/Users/bernarda/Projects_s21/cpp/SmartCalc/SmartCalc2/model/credit.h
FN:10,_ZN6CreditC1Ev
FNDA:3,_ZN6CreditC1Ev
FN:11,_ZN6CreditD1Ev
FNDA:3,_ZN6CreditD1Ev
FNF:2
FNH:2
DA:10,3
DA:11,3
LF:2
LH:2
end_of_record
SF:/Users/bernarda/Projects_s21/cpp/SmartCalc/SmartCalc2/model/token.h
FN:89,_ZN5TokenD1Ev
FNDA:0,_ZN5TokenD1Ev
FNF:1
FNH:0
DA:89,0
LF:1
LH:0
end_of_record
SF:/Users/bernarda/Projects_s21/cpp/SmartCalc/SmartCalc2/tests/SmartCalc_V2_test.cc
FN:9,_ZN24calculation_kek_add_TestC1Ev
FNDA:1,_ZN24calculation_kek_add_TestC1Ev
FN:9,_ZN24calculation_kek_add_Test8TestBodyEv
FNDA:1,_ZN24calculation_kek_add_Test8TestBodyEv
FN:9,_ZN24calculation_kek_add_TestD1Ev
FNDA:1,_ZN24calculation_kek_add_TestD1Ev
FN:9,_ZN24calculation_kek_add_TestD0Ev
FNDA:1,_ZN24calculation_kek_add_TestD0Ev
FN:15,_ZN20calculation_add_TestC1Ev
FNDA:1,_ZN20calculation_add_TestC1Ev
FN:15,_ZN20calculation_add_Test8TestBodyEv
FNDA:1,_ZN20calculation_add_Test8TestBodyEv
FN:15,_ZN20calculation_add_TestD1Ev
FNDA:1,_ZN20calculation_add_TestD1Ev
FN:15,_ZN20calculation_add_TestD0Ev
FNDA:1,_ZN20calculation_add_TestD0Ev
FN:21,_ZN20calculation_sum_TestC1Ev
FNDA:1,_ZN20calculation_sum_TestC1Ev
FN:21,_ZN20calculation_sum_Test8TestBodyEv
FNDA:1,_ZN20calculation_sum_Test8TestBodyEv
FN:21,_ZN20calculation_sum_TestD0Ev
FNDA:1,_ZN20calculation_sum_TestD0Ev
FN:21,_ZN20calculation_sum_TestD1Ev
FNDA:1,_ZN20calculation_sum_TestD1Ev
FN:27,_ZN20calculation_mul_TestC1Ev
FNDA:1,_ZN20calculation_mul_TestC1Ev
FN:27,_ZN20calculation_mul_Test8TestBodyEv
FNDA:1,_ZN20calculation_mul_Test8TestBodyEv
FN:27,_ZN20calculation_mul_TestD1Ev
FNDA:1,_ZN20calculation_mul_TestD1Ev
FN:27,_ZN20calculation_mul_TestD0Ev
FNDA:1,_ZN20calculation_mul_TestD0Ev
FN:33,_ZN20calculation_div_Test8TestBodyEv
FNDA:1,_ZN20calculation_div_Test8TestBodyEv
FN:33,_ZN20calculation_div_TestD1Ev
FNDA:1,_ZN20calculation_div_TestD1Ev
FN:33,_ZN20calculation_div_TestD0Ev
FNDA:1,_ZN20calculation_div_TestD0Ev
FN:33,_ZN20calculation_div_TestC1Ev
FNDA:1,_ZN20calculation_div_TestC1Ev
FN:39,_ZN20calculation_mod_TestD0Ev
FNDA:1,_ZN20calculation_mod_TestD0Ev
FN:39,_ZN20calculation_mod_TestD1Ev
FNDA:1,_ZN20calculation_mod_TestD1Ev
FN:39,_ZN20calculation_mod_TestC1Ev
FNDA:1,_ZN20calculation_mod_TestC1Ev
FN:39,_ZN20calculation_mod_Test8TestBodyEv
FNDA:1,_ZN20calculation_mod_Test8TestBodyEv
FN:45,_ZN28calculation_parenthesis_TestC1Ev
FNDA:1,_ZN28calculation_parenthesis_TestC1Ev
FN:45,_ZN28calculation_parenthesis_Test8TestBodyEv
FNDA:1,_ZN28calculation_parenthesis_Test8TestBodyEv
FN:45,_ZN28calculation_parenthesis_TestD1Ev
FNDA:1,_ZN28calculation_parenthesis_TestD1Ev
FN:45,_ZN28calculation_parenthesis_TestD0Ev
FNDA:1,_ZN28calculation_parenthesis_TestD0Ev
FN:51,_ZN20calculation_sin_TestC1Ev
FNDA:1,_ZN20calculation_sin_TestC1Ev
FN:51,_ZN20calculation_sin_TestD1Ev
FNDA:1,_ZN20calculation_sin_TestD1Ev
FN:51,_ZN20calculation_sin_TestD0Ev
FNDA:1,_ZN20calculation_sin_TestD0Ev
FN:51,_ZN20calculation_sin_Test8TestBodyEv
FNDA:1,_ZN20calculation_sin_Test8TestBodyEv
FN:57,_ZN20calculation_cos_TestD0Ev
FNDA:1,_ZN20calculation_cos_TestD0Ev
FN:57,_ZN20calculation_cos_TestD1Ev
FNDA:1,_ZN20calculation_cos_TestD1Ev
FN:57,_ZN20calculation_cos_Test8TestBodyEv
FNDA:1,_ZN20calculation_cos_Test8TestBodyEv
FN:57,_ZN20calculation_cos_TestC1Ev
FNDA:1,_ZN20calculation_cos_TestC1Ev
FN:63,_ZN20calculation_tan_TestC1Ev
FNDA:1,_ZN20calculation_tan_TestC1Ev
FN:63,_ZN20calculation_tan_TestD0Ev
FNDA:1,_ZN20calculation_tan_TestD0Ev
FN:63,_ZN20calculation_tan_TestD1Ev
FNDA:1,_ZN20calculation_tan_TestD1Ev
FN:63,_ZN20calculation_tan_Test8TestBodyEv
FNDA:1,_ZN20calculation_tan_Test8TestBodyEv
FN:69,_ZN20calculation_log_TestC1Ev
FNDA:1,_ZN20calculation_log_TestC1Ev
FN:69,_ZN20calculation_log_TestD1Ev
FNDA:1,_ZN20calculation_log_TestD1Ev
FN:69,_ZN20calculation_log_Test8TestBodyEv
FNDA:1,_ZN20calculation_log_Test8TestBodyEv
FN:69,_ZN20calculation_log_TestD0Ev
FNDA:1,_ZN20calculation_log_TestD0Ev
FN:75,_ZN19calculation_ln_TestC1Ev
FNDA:1,_ZN19calculation_ln_TestC1Ev
FN:75,_ZN19calculation_ln_TestD1Ev
FNDA:1,_ZN19calculation_ln_TestD1Ev
FN:75,_ZN19calculation_ln_TestD0Ev
FNDA:1,_ZN19calculation_ln_TestD0Ev
FN:75,_ZN19calculation_ln_Test8TestBodyEv
FNDA:1,_ZN19calculation_ln_Test8TestBodyEv
FN:81,_ZN21calculation_sqrt_TestC1Ev
FNDA:1,_ZN21calculation_sqrt_TestC1Ev
FN:81,_ZN21calculation_sqrt_TestD1Ev
FNDA:1,_ZN21calculation_sqrt_TestD1Ev
FN:81,_ZN21calculation_sqrt_TestD0Ev
FNDA:1,_ZN21calculation_sqrt_TestD0Ev
FN:81,_ZN21calculation_sqrt_Test8TestBodyEv
FNDA:1,_ZN21calculation_sqrt_Test8TestBodyEv
FN:87,_ZN21calculation_cbrt_Test8TestBodyEv
FNDA:1,_ZN21calculation_cbrt_Test8TestBodyEv
FN:87,_ZN21calculation_cbrt_TestD1Ev
FNDA:1,_ZN21calculation_cbrt_TestD1Ev
FN:87,_ZN21calculation_cbrt_TestD0Ev
FNDA:1,_ZN21calculation_cbrt_TestD0Ev
FN:87,_ZN21calculation_cbrt_TestC1Ev
FNDA:1,_ZN21calculation_cbrt_TestC1Ev
FN:93,_ZN21calculation_asin_TestC1Ev
FNDA:1,_ZN21calculation_asin_TestC1Ev
FN:93,_ZN21calculation_asin_TestD0Ev
FNDA:1,_ZN21calculation_asin_TestD0Ev
FN:93,_ZN21calculation_asin_Test8TestBodyEv
FNDA:1,_ZN21calculation_asin_Test8TestBodyEv
FN:93,_ZN21calculation_asin_TestD1Ev
FNDA:1,_ZN21calculation_asin_TestD1Ev
FN:99,_ZN21calculation_acos_TestD1Ev
FNDA:1,_ZN21calculation_acos_TestD1Ev
FN:99,_ZN21calculation_acos_TestC1Ev
FNDA:1,_ZN21calculation_acos_TestC1Ev
FN:99,_ZN21calculation_acos_TestD0Ev
FNDA:1,_ZN21calculation_acos_TestD0Ev
FN:99,_ZN21calculation_acos_Test8TestBodyEv
FNDA:1,_ZN21calculation_acos_Test8TestBodyEv
FN:105,_ZN21calculation_atan_TestD0Ev
FNDA:1,_ZN21calculation_atan_TestD0Ev
FN:105,_ZN21calculation_atan_TestD1Ev
FNDA:1,_ZN21calculation_atan_TestD1Ev
FN:105,_ZN21calculation_atan_Test8TestBodyEv
FNDA:1,_ZN21calculation_atan_Test8TestBodyEv
FN:105,_ZN21calculation_atan_TestC1Ev
FNDA:1,_ZN21calculation_atan_TestC1Ev
FN:111,_ZN20calculation_pow_TestD0Ev
FNDA:1,_ZN20calculation_pow_TestD0Ev
FN:111,_ZN20calculation_pow_Test8TestBodyEv
FNDA:1,_ZN20calculation_pow_Test8TestBodyEv
FN:111,_ZN20calculation_pow_TestC1Ev
FNDA:1,_ZN20calculation_pow_TestC1Ev
FN:111,_ZN20calculation_pow_TestD1Ev
FNDA:1,_ZN20calculation_pow_TestD1Ev
FN:117,_ZN19calculation_pi_TestC1Ev
FNDA:1,_ZN19calculation_pi_TestC1Ev
FN:117,_ZN19calculation_pi_TestD0Ev
FNDA:1,_ZN19calculation_pi_TestD0Ev
FN:117,_ZN19calculation_pi_TestD1Ev
FNDA:1,_ZN19calculation_pi_TestD1Ev
FN:117,_ZN19calculation_pi_Test8TestBodyEv
FNDA:1,_ZN19calculation_pi_Test8TestBodyEv
FN:123,_ZN18calculation_e_Test8TestBodyEv
FNDA:1,_ZN18calculation_e_Test8TestBodyEv
FN:123,_ZN18calculation_e_TestC1Ev
FNDA:1,_ZN18calculation_e_TestC1Ev
FN:123,_ZN18calculation_e_TestD0Ev
FNDA:1,_ZN18calculation_e_TestD0Ev
FN:123,_ZN18calculation_e_TestD1Ev
FNDA:1,_ZN18calculation_e_TestD1Ev
FN:129,_ZN20calculation_exp_Test8TestBodyEv
FNDA:1,_ZN20calculation_exp_Test8TestBodyEv
FN:129,_ZN20calculation_exp_TestD1Ev
FNDA:1,_ZN20calculation_exp_TestD1Ev
FN:129,_ZN20calculation_exp_TestD0Ev
FNDA:1,_ZN20calculation_exp_TestD0Ev
FN:129,_ZN20calculation_exp_TestC1Ev
FNDA:1,_ZN20calculation_exp_TestC1Ev
FN:135,_ZN20calculation_abs_TestC1Ev
FNDA:1,_ZN20calculation_abs_TestC1Ev
FN:135,_ZN20calculation_abs_Test8TestBodyEv
FNDA:1,_ZN20calculation_abs_Test8TestBodyEv
FN:135,_ZN20calculation_abs_TestD1Ev
FNDA:1,_ZN20calculation_abs_TestD1Ev
FN:135,_ZN20calculation_abs_TestD0Ev
FNDA:1,_ZN20calculation_abs_TestD0Ev
FN:141,_ZN29calculation_expression_1_Test8TestBodyEv
FNDA:1,_ZN29calculation_expression_1_Test8TestBodyEv
FN:141,_ZN29calculation_expression_1_TestD0Ev
FNDA:1,_ZN29calculation_expression_1_TestD0Ev
FN:141,_ZN29calculation_expression_1_TestD1Ev
FNDA:1,_ZN29calculation_expression_1_TestD1Ev
FN:141,_ZN29calculation_expression_1_TestC1Ev
FNDA:1,_ZN29calculation_expression_1_TestC1Ev
FN:147,_ZN29calculation_expression_2_TestC1Ev
FNDA:1,_ZN29calculation_expression_2_TestC1Ev
FN:147,_ZN29calculation_expression_2_TestD0Ev
FNDA:1,_ZN29calculation_expression_2_TestD0Ev
FN:147,_ZN29calculation_expression_2_TestD1Ev
FNDA:1,_ZN29calculation_expression_2_TestD1Ev
FN:147,_ZN29calculation_expression_2_Test8TestBodyEv
FNDA:1,_ZN29calculation_expression_2_Test8TestBodyEv
FN:153,_ZN29calculation_expression_3_TestC1Ev
FNDA:1,_ZN29calculation_expression_3_TestC1Ev
FN:153,_ZN29calculation_expression_3_Test8TestBodyEv
FNDA:1,_ZN29calculation_expression_3_Test8TestBodyEv
FN:153,_ZN29calculation_expression_3_TestD0Ev
FNDA:1,_ZN29calculation_expression_3_TestD0Ev
FN:153,_ZN29calculation_expression_3_TestD1Ev
FNDA:1,_ZN29calculation_expression_3_TestD1Ev
FN:159,_ZN29calculation_expression_5_TestD0Ev
FNDA:1,_ZN29calculation_expression_5_TestD0Ev
FN:159,_ZN29calculation_expression_5_TestD1Ev
FNDA:1,_ZN29calculation_expression_5_TestD1Ev
FN:159,_ZN29calculation_expression_5_Test8TestBodyEv
FNDA:1,_ZN29calculation_expression_5_Test8TestBodyEv
FN:159,_ZN29calculation_expression_5_TestC1Ev
FNDA:1,_ZN29calculation_expression_5_TestC1Ev
FN:165,_ZN29calculation_expression_6_TestD0Ev
FNDA:1,_ZN29calculation_expression_6_TestD0Ev
FN:165,_ZN29calculation_expression_6_TestD1Ev
FNDA:1,_ZN29calculation_expression_6_TestD1Ev
FN:165,_ZN29calculation_expression_6_TestC1Ev
FNDA:1,_ZN29calculation_expression_6_TestC1Ev
FN:165,_ZN29calculation_expression_6_Test8TestBodyEv
FNDA:1,_ZN29calculation_expression_6_Test8TestBodyEv
FN:171,_ZN29calculation_expression_7_TestD0Ev
FNDA:1,_ZN29calculation_expression_7_TestD0Ev
FN:171,_ZN29calculation_expression_7_TestD1Ev
FNDA:1,_ZN29calculation_expression_7_TestD1Ev
FN:171,_ZN29calculation_expression_7_TestC1Ev
FNDA:1,_ZN29calculation_expression_7_TestC1Ev
FN:171,_ZN29calculation_expression_7_Test8TestBodyEv
FNDA:1,_ZN29calculation_expression_7_Test8TestBodyEv
FN:177,_ZN29calculation_expression_8_Test8TestBodyEv
FNDA:1,_ZN29calculation_expression_8_Test8TestBodyEv
FN:177,_ZN29calculation_expression_8_TestC1Ev
FNDA:1,_ZN29calculation_expression_8_TestC1Ev
FN:177,_ZN29calculation_expression_8_TestD1Ev
FNDA:1,_ZN29calculation_expression_8_TestD1Ev
FN:177,_ZN29calculation_expression_8_TestD0Ev
FNDA:1,_ZN29calculation_expression_8_TestD0Ev
FN:183,_ZN29calculation_expression_9_Test8TestBodyEv
FNDA:1,_ZN29calculation_expression_9_Test8TestBodyEv
FN:183,_ZN29calculation_expression_9_TestD1Ev
FNDA:1,_ZN29calculation_expression_9_TestD1Ev
FN:183,_ZN29calculation_expression_9_TestD0Ev
FNDA:1,_ZN29calculation_expression_9_TestD0Ev
FN:183,_ZN29calculation_expression_9_TestC1Ev
FNDA:1,_ZN29calculation_expression_9_TestC1Ev
FN:189,_ZN30calculation_expression_10_TestD1Ev
FNDA:1,_ZN30calculation_expression_10_TestD1Ev
FN:189,_ZN30calculation_expression_10_Test8TestBodyEv
FNDA:1,_ZN30calculation_expression_10_Test8TestBodyEv
FN:189,_ZN30calculation_expression_10_TestC1Ev
FNDA:1,_ZN30calculation_expression_10_TestC1Ev
FN:189,_ZN30calculation_expression_10_TestD0Ev
FNDA:1,_ZN30calculation_expression_10_TestD0Ev
FN:195,_ZN30calculation_expression_11_TestC1Ev
FNDA:1,_ZN30calculation_expression_11_TestC1Ev
FN:195,_ZN30calculation_expression_11_TestD1Ev
FNDA:1,_ZN30calculation_expression_11_TestD1Ev
FN:195,_ZN30calculation_expression_11_TestD0Ev
FNDA:1,_ZN30calculation_expression_11_TestD0Ev
FN:195,_ZN30calculation_expression_11_Test8TestBodyEv
FNDA:1,_ZN30calculation_expression_11_Test8TestBodyEv
FN:201,_ZN30calculation_expression_12_TestC1Ev
FNDA:1,_ZN30calculation_expression_12_TestC1Ev
FN:201,_ZN30calculation_expression_12_TestD1Ev
FNDA:1,_ZN30calculation_expression_12_TestD1Ev
FN:201,_ZN30calculation_expression_12_TestD0Ev
FNDA:1,_ZN30calculation_expression_12_TestD0Ev
FN:201,_ZN30calculation_expression_12_Test8TestBodyEv
FNDA:1,_ZN30calculation_expression_12_Test8TestBodyEv
FN:207,_ZN30calculation_expression_13_TestD1Ev
FNDA:1,_ZN30calculation_expression_13_TestD1Ev
FN:207,_ZN30calculation_expression_13_Test8TestBodyEv
FNDA:1,_ZN30calculation_expression_13_Test8TestBodyEv
FN:207,_ZN30calculation_expression_13_TestC1Ev
FNDA:1,_ZN30calculation_expression_13_TestC1Ev
FN:207,_ZN30calculation_expression_13_TestD0Ev
FNDA:1,_ZN30calculation_expression_13_TestD0Ev
FN:214,_ZN30calculation_expression_14_TestC1Ev
FNDA:1,_ZN30calculation_expression_14_TestC1Ev
FN:214,_ZN30calculation_expression_14_Test8TestBodyEv
FNDA:1,_ZN30calculation_expression_14_Test8TestBodyEv
FN:214,_ZN30calculation_expression_14_TestD0Ev
FNDA:1,_ZN30calculation_expression_14_TestD0Ev
FN:214,_ZN30calculation_expression_14_TestD1Ev
FNDA:1,_ZN30calculation_expression_14_TestD1Ev
FN:220,_ZN30calculation_expression_15_TestC1Ev
FNDA:1,_ZN30calculation_expression_15_TestC1Ev
FN:220,_ZN30calculation_expression_15_TestD0Ev
FNDA:1,_ZN30calculation_expression_15_TestD0Ev
FN:220,_ZN30calculation_expression_15_TestD1Ev
FNDA:1,_ZN30calculation_expression_15_TestD1Ev
FN:220,_ZN30calculation_expression_15_Test8TestBodyEv
FNDA:1,_ZN30calculation_expression_15_Test8TestBodyEv
FN:226,_ZN30calculation_expression_16_TestD1Ev
FNDA:1,_ZN30calculation_expression_16_TestD1Ev
FN:226,_ZN30calculation_expression_16_TestD0Ev
FNDA:1,_ZN30calculation_expression_16_TestD0Ev
FN:226,_ZN30calculation_expression_16_TestC1Ev
FNDA:1,_ZN30calculation_expression_16_TestC1Ev
FN:226,_ZN30calculation_expression_16_Test8TestBodyEv
FNDA:1,_ZN30calculation_expression_16_Test8TestBodyEv
FN:232,_ZN30calculation_expression_17_Test8TestBodyEv
FNDA:1,_ZN30calculation_expression_17_Test8TestBodyEv
FN:232,_ZN30calculation_expression_17_TestD1Ev
FNDA:1,_ZN30calculation_expression_17_TestD1Ev
FN:232,_ZN30calculation_expression_17_TestD0Ev
FNDA:1,_ZN30calculation_expression_17_TestD0Ev
FN:232,_ZN30calculation_expression_17_TestC1Ev
FNDA:1,_ZN30calculation_expression_17_TestC1Ev
FN:238,_ZN30calculation_expression_18_Test8TestBodyEv
FNDA:1,_ZN30calculation_expression_18_Test8TestBodyEv
FN:238,_ZN30calculation_expression_18_TestD0Ev
FNDA:1,_ZN30calculation_expression_18_TestD0Ev
FN:238,_ZN30calculation_expression_18_TestC1Ev
FNDA:1,_ZN30calculation_expression_18_TestC1Ev
FN:238,_ZN30calculation_expression_18_TestD1Ev
FNDA:1,_ZN30calculation_expression_18_TestD1Ev
FN:244,_ZN30calculation_expression_19_TestD1Ev
FNDA:1,_ZN30calculation_expression_19_TestD1Ev
FN:244,_ZN30calculation_expression_19_TestD0Ev
FNDA:1,_ZN30calculation_expression_19_TestD0Ev
FN:244,_ZN30calculation_expression_19_Test8TestBodyEv
FNDA:1,_ZN30calculation_expression_19_Test8TestBodyEv
FN:244,_ZN30calculation_expression_19_TestC1Ev
FNDA:1,_ZN30calculation_expression_19_TestC1Ev
FN:250,_ZN30calculation_expression_20_TestD1Ev
FNDA:1,_ZN30calculation_expression_20_TestD1Ev
FN:250,_ZN30calculation_expression_20_TestD0Ev
FNDA:1,_ZN30calculation_expression_20_TestD0Ev
FN:250,_ZN30calculation_expression_20_Test8TestBodyEv
FNDA:1,_ZN30calculation_expression_20_Test8TestBodyEv
FN:250,_ZN30calculation_expression_20_TestC1Ev
FNDA:1,_ZN30calculation_expression_20_TestC1Ev
FN:256,_ZN30calculation_expression_21_TestC1Ev
FNDA:1,_ZN30calculation_expression_21_TestC1Ev
FN:256,_ZN30calculation_expression_21_TestD1Ev
FNDA:1,_ZN30calculation_expression_21_TestD1Ev
FN:256,_ZN30calculation_expression_21_TestD0Ev
FNDA:1,_ZN30calculation_expression_21_TestD0Ev
FN:256,_ZN30calculation_expression_21_Test8TestBodyEv
FNDA:1,_ZN30calculation_expression_21_Test8TestBodyEv
FN:262,_ZN30calculation_expression_22_TestD0Ev
FNDA:1,_ZN30calculation_expression_22_TestD0Ev
FN:262,_ZN30calculation_expression_22_TestD1Ev
FNDA:1,_ZN30calculation_expression_22_TestD1Ev
FN:262,_ZN30calculation_expression_22_Test8TestBodyEv
FNDA:1,_ZN30calculation_expression_22_Test8TestBodyEv
FN:262,_ZN30calculation_expression_22_TestC1Ev
FNDA:1,_ZN30calculation_expression_22_TestC1Ev
FN:268,_ZN30calculation_expression_23_TestD1Ev
FNDA:1,_ZN30calculation_expression_23_TestD1Ev
FN:268,_ZN30calculation_expression_23_TestC1Ev
FNDA:1,_ZN30calculation_expression_23_TestC1Ev
FN:268,_ZN30calculation_expression_23_Test8TestBodyEv
FNDA:1,_ZN30calculation_expression_23_Test8TestBodyEv
FN:268,_ZN30calculation_expression_23_TestD0Ev
FNDA:1,_ZN30calculation_expression_23_TestD0Ev
FN:274,_ZN33calculation_graph_expression_TestD1Ev
FNDA:1,_ZN33calculation_graph_expression_TestD1Ev
FN:274,_ZN33calculation_graph_expression_TestD0Ev
FNDA:1,_ZN33calculation_graph_expression_TestD0Ev
FN:274,_ZN33calculation_graph_expression_TestC1Ev
FNDA:1,_ZN33calculation_graph_expression_TestC1Ev
FN:274,_ZN33calculation_graph_expression_Test8TestBodyEv
FNDA:1,_ZN33calculation_graph_expression_Test8TestBodyEv
FN:283,_ZN15credit_ann_Test8TestBodyEv
FNDA:1,_ZN15credit_ann_Test8TestBodyEv
FN:283,_ZN15credit_ann_TestD1Ev
FNDA:1,_ZN15credit_ann_TestD1Ev
FN:283,_ZN15credit_ann_TestD0Ev
FNDA:1,_ZN15credit_ann_TestD0Ev
FN:283,_ZN15credit_ann_TestC1Ev
FNDA:1,_ZN15credit_ann_TestC1Ev
FN:291,_ZN16credit_diff_Test8TestBodyEv
FNDA:1,_ZN16credit_diff_Test8TestBodyEv
FN:291,_ZN16credit_diff_TestD1Ev
FNDA:1,_ZN16credit_diff_TestD1Ev
FN:291,_ZN16credit_diff_TestD0Ev
FNDA:1,_ZN16credit_diff_TestD0Ev
FN:291,_ZN16credit_diff_TestC1Ev
FNDA:1,_ZN16credit_diff_TestC1Ev
FN:303,main
FNDA:1,main
FNF:189
FNH:189
DA:9,1
DA:9,1
DA:9,1
DA:9,1
DA:10,1
DA:11,1
DA:12,1
DA:15,1
DA:15,1
DA:15,1
DA:15,1
DA:16,1
DA:17,1
DA:18,1
DA:21,1
DA:21,1
DA:21,1
DA:21,1
DA:22,1
DA:23,1
DA:24,1
DA:27,1
DA:27,1
DA:27,1
DA:27,1
DA:28,1
DA:29,1
DA:30,1
DA:33,1
DA:33,1
DA:33,1
DA:33,1
DA:34,1
DA:35,1
DA:36,1
DA:39,1
DA:39,1
DA:39,1
DA:39,1
DA:40,1
DA:41,1
DA:42,1
DA:45,1
DA:45,1
DA:45,1
DA:45,1
DA:46,1
DA:47,1
DA:48,1
DA:51,1
DA:51,1
DA:51,1
DA:51,1
DA:52,1
DA:53,1
DA:54,1
DA:57,1
DA:57,1
DA:57,1
DA:57,1
DA:58,1
DA:59,1
DA:60,1
DA:63,1
DA:63,1
DA:63,1
DA:63,1
DA:64,1
DA:65,1
DA:66,1
DA:69,1
DA:69,1
DA:69,1
DA:69,1
DA:70,1
DA:71,1
DA:72,1
DA:75,1
DA:75,1
DA:75,1
DA:75,1
DA:76,1
DA:77,1
DA:78,1
DA:81,1
DA:81,1
DA:81,1
DA:81,1
DA:82,1
DA:83,1
DA:84,1
DA:87,1
DA:87,1
DA:87,1
DA:87,1
DA:88,1
DA:89,1
DA:90,1
DA:93,1
DA:93,1
DA:93,1
DA:93,1
DA:94,1
DA:95,1
DA:96,1
DA:99,1
DA:99,1
DA:99,1
DA:99,1
DA:100,1
DA:101,1
DA:102,1
DA:105,1
DA:105,1
DA:105,1
DA:105,1
DA:106,1
DA:107,1
DA:108,1
DA:111,1
DA:111,1
DA:111,1
DA:111,1
DA:112,1
DA:113,1
DA:114,1
DA:117,1
DA:117,1
DA:117,1
DA:117,1
DA:118,1
DA:119,1
DA:120,1
DA:123,1
DA:123,1
DA:123,1
DA:123,1
DA:124,1
DA:125,1
DA:126,1
DA:129,1
DA:129,1
DA:129,1
DA:129,1
DA:130,1
DA:131,1
DA:132,1
DA:135,1
DA:135,1
DA:135,1
DA:135,1
DA:136,1
DA:137,1
DA:138,1
DA:141,1
DA:141,1
DA:141,1
DA:141,1
DA:142,1
DA:143,1
DA:144,1
DA:147,1
DA:147,1
DA:147,1
DA:147,1
DA:148,1
DA:149,1
DA:150,1
DA:153,1
DA:153,1
DA:153,1
DA:153,1
DA:154,1
DA:155,1
DA:156,1
DA:159,1
DA:159,1
DA:159,1
DA:159,1
DA:160,1
DA:161,1
DA:162,1
DA:165,1
DA:165,1
DA:165,1
DA:165,1
DA:166,1
DA:167,1
DA:168,1
DA:171,1
DA:171,1
DA:171,1
DA:171,1
DA:172,1
DA:173,1
DA:174,1
DA:177,1
DA:177,1
DA:177,1
DA:177,1
DA:178,1
DA:179,1
DA:180,1
DA:183,1
DA:183,1
DA:183,1
DA:183,1
DA:184,1
DA:185,1
DA:186,1
DA:189,1
DA:189,1
DA:189,1
DA:189,1
DA:190,1
DA:191,1
DA:192,1
DA:195,1
DA:195,1
DA:195,1
DA:195,1
DA:196,1
DA:197,1
DA:198,1
DA:201,1
DA:201,1
DA:201,1
DA:201,1
DA:202,1
DA:203,1
DA:204,1
DA:207,1
DA:207,1
DA:207,1
DA:207,1
DA:208,1
DA:209,1
DA:211,1
DA:214,1
DA:214,1
DA:214,1
DA:214,1
DA:215,1
DA:216,1
DA:217,1
DA:220,1
DA:220,1
DA:220,1
DA:220,1
DA:221,1
DA:222,1
DA:223,1
DA:226,1
DA:226,1
DA:226,1
DA:226,1
DA:227,1
DA:228,1
DA:229,1
DA:232,1
DA:232,1
DA:232,1
DA:232,1
DA:233,1
DA:234,1
DA:235,1
DA:238,1
DA:238,1
DA:238,1
DA:238,1
DA:239,1
DA:240,1
DA:241,1
DA:244,1
DA:244,1
DA:244,1
DA:244,1
DA:245,1
DA:246,1
DA:247,1
DA:250,1
DA:250,1
DA:250,1
DA:250,1
DA:251,1
DA:252,1
DA:253,1
DA:256,1
DA:256,1
DA:256,1
DA:256,1
DA:257,1
DA:258,1
DA:259,1
DA:262,1
DA:262,1
DA:262,1
DA:262,1
DA:263,1
DA:264,1
DA:265,1
DA:268,1
DA:268,1
DA:268,1
DA:268,1
DA:269,1
DA:270,1
DA:271,1
DA:274,1
DA:274,1
DA:274,1
DA:274,1
DA:275,1
DA:276,1
DA:277,1
DA:278,1
DA:279,1
DA:280,1
DA:283,1
DA:283,1
DA:283,1
DA:283,1
DA:284,1
DA:285,1
DA:286,1
DA:287,1
DA:288,2
DA:291,1
DA:291,1
DA:291,1
DA:291,1
DA:292,1
DA:293,1
DA:294,1
DA:295,1
DA:297,1
DA:298,7
DA:299,12
DA:303,1
DA:304,1
DA:305,1
LF:341
LH:341
end_of_record
TN:SmartCalc_V2_test_cov
SF:/Users/bernarda/Projects_s21/cpp/SmartCalc/SmartCalc2/model/credit.h
FN:10,_ZN6CreditC1Ev
FNDA:0,_ZN6CreditC1Ev
FN:11,_ZN6CreditD1Ev
FNDA:0,_ZN6CreditD1Ev
FNF:2
FNH:0
DA:10,0
DA:11,0
LF:2
LH:0
end_of_record
SF:/Users/bernarda/Projects_s21/cpp/SmartCalc/SmartCalc2/tests/SmartCalc_V2_test_credit.cc
FN:7,_ZN24credit_expression_1_TestC1Ev
FNDA:1,_ZN24credit_expression_1_TestC1Ev
FN:7,_ZN24credit_expression_1_TestD0Ev
FNDA:1,_ZN24credit_expression_1_TestD0Ev
FN:7,_ZN24credit_expression_1_TestD1Ev
FNDA:1,_ZN24credit_expression_1_TestD1Ev
FN:7,_ZN24credit_expression_1_Test8TestBodyEv
FNDA:1,_ZN24credit_expression_1_Test8TestBodyEv
FNF:4
FNH:4
DA:7,1
DA:7,1
DA:7,1
DA:7,1
DA:8,1
DA:9,1
DA:10,1
DA:11,1
DA:12,2
LF:9
LH:9
end_of_record
TN:SmartCalc_V2_test_cov
SF:/Users/bernarda/Projects_s21/cpp/SmartCalc/SmartCalc2/model/mathcalculator.h
FN:26,_ZN14MathCalculatorD1Ev
FNDA:0,_ZN14MathCalculatorD1Ev
FNF:1
FNH:0
DA:26,0
LF:1
LH:0
end_of_record
SF:/Users/bernarda/Projects_s21/cpp/SmartCalc/SmartCalc2/tests/SmartCalc_V2_test_throw.cc
FN:5,_ZN41logic_error_character_limit_exceeded_TestC1Ev
FNDA:1,_ZN41logic_error_character_limit_exceeded_TestC1Ev
FN:5,_ZN41logic_error_character_limit_exceeded_Test8TestBodyEv
FNDA:1,_ZN41logic_error_character_limit_exceeded_Test8TestBodyEv
FN:5,_ZN41logic_error_character_limit_exceeded_TestD1Ev
FNDA:1,_ZN41logic_error_character_limit_exceeded_TestD1Ev
FN:5,_ZN41logic_error_character_limit_exceeded_TestD0Ev
FNDA:1,_ZN41logic_error_character_limit_exceeded_TestD0Ev
FN:19,_ZN28logic_error_empty_input_TestC1Ev
FNDA:1,_ZN28logic_error_empty_input_TestC1Ev
FN:19,_ZN28logic_error_empty_input_Test8TestBodyEv
FNDA:1,_ZN28logic_error_empty_input_Test8TestBodyEv
FN:19,_ZN28logic_error_empty_input_TestD1Ev
FNDA:1,_ZN28logic_error_empty_input_TestD1Ev
FN:19,_ZN28logic_error_empty_input_TestD0Ev
FNDA:1,_ZN28logic_error_empty_input_TestD0Ev
FN:24,_ZN33logic_error_incorrect_symbol_TestC1Ev
FNDA:1,_ZN33logic_error_incorrect_symbol_TestC1Ev
FN:24,_ZN33logic_error_incorrect_symbol_Test8TestBodyEv
FNDA:1,_ZN33logic_error_incorrect_symbol_Test8TestBodyEv
FN:24,_ZN33logic_error_incorrect_symbol_TestD0Ev
FNDA:1,_ZN33logic_error_incorrect_symbol_TestD0Ev
FN:24,_ZN33logic_error_incorrect_symbol_TestD1Ev
FNDA:1,_ZN33logic_error_incorrect_symbol_TestD1Ev
FN:29,_ZN40logic_error_incorrect_function_name_TestC1Ev
FNDA:1,_ZN40logic_error_incorrect_function_name_TestC1Ev
FN:29,_ZN40logic_error_incorrect_function_name_Test8TestBodyEv
FNDA:1,_ZN40logic_error_incorrect_function_name_Test8TestBodyEv
FN:29,_ZN40logic_error_incorrect_function_name_TestD0Ev
FNDA:1,_ZN40logic_error_incorrect_function_name_TestD0Ev
FN:29,_ZN40logic_error_incorrect_function_name_TestD1Ev
FNDA:1,_ZN40logic_error_incorrect_function_name_TestD1Ev
FN:33,_ZN23logic_error_fail_2_TestD1Ev
FNDA:1,_ZN23logic_error_fail_2_TestD1Ev
FN:33,_ZN23logic_error_fail_2_TestC1Ev
FNDA:1,_ZN23logic_error_fail_2_TestC1Ev
FN:33,_ZN23logic_error_fail_2_TestD0Ev
FNDA:1,_ZN23logic_error_fail_2_TestD0Ev
FN:33,_ZN23logic_error_fail_2_Test8TestBodyEv
FNDA:1,_ZN23logic_error_fail_2_Test8TestBodyEv
FN:38,_ZN23logic_error_fail_3_Test8TestBodyEv
FNDA:1,_ZN23logic_error_fail_3_Test8TestBodyEv
FN:38,_ZN23logic_error_fail_3_TestD1Ev
FNDA:1,_ZN23logic_error_fail_3_TestD1Ev
FN:38,_ZN23logic_error_fail_3_TestD0Ev
FNDA:1,_ZN23logic_error_fail_3_TestD0Ev
FN:38,_ZN23logic_error_fail_3_TestC1Ev
FNDA:1,_ZN23logic_error_fail_3_TestC1Ev
FN:43,_ZN23logic_error_fail_4_TestD0Ev
FNDA:1,_ZN23logic_error_fail_4_TestD0Ev
FN:43,_ZN23logic_error_fail_4_TestC1Ev
FNDA:1,_ZN23logic_error_fail_4_TestC1Ev
FN:43,_ZN23logic_error_fail_4_TestD1Ev
FNDA:1,_ZN23logic_error_fail_4_TestD1Ev
FN:43,_ZN23logic_error_fail_4_Test8TestBodyEv
FNDA:1,_ZN23logic_error_fail_4_Test8TestBodyEv
FN:48,_ZN23logic_error_fail_5_TestC1Ev
FNDA:1,_ZN23logic_error_fail_5_TestC1Ev
FN:48,_ZN23logic_error_fail_5_TestD0Ev
FNDA:1,_ZN23logic_error_fail_5_TestD0Ev
FN:48,_ZN23logic_error_fail_5_Test8TestBodyEv
FNDA:1,_ZN23logic_error_fail_5_Test8TestBodyEv
FN:48,_ZN23logic_error_fail_5_TestD1Ev
FNDA:1,_ZN23logic_error_fail_5_TestD1Ev
FN:53,_ZN23logic_error_fail_6_TestD0Ev
FNDA:1,_ZN23logic_error_fail_6_TestD0Ev
FN:53,_ZN23logic_error_fail_6_TestD1Ev
FNDA:1,_ZN23logic_error_fail_6_TestD1Ev
FN:53,_ZN23logic_error_fail_6_Test8TestBodyEv
FNDA:1,_ZN23logic_error_fail_6_Test8TestBodyEv
FN:53,_ZN23logic_error_fail_6_TestC1Ev
FNDA:1,_ZN23logic_error_fail_6_TestC1Ev
FN:58,_ZN23logic_error_fail_7_TestD0Ev
FNDA:1,_ZN23logic_error_fail_7_TestD0Ev
FN:58,_ZN23logic_error_fail_7_TestD1Ev
FNDA:1,_ZN23logic_error_fail_7_TestD1Ev
FN:58,_ZN23logic_error_fail_7_Test8TestBodyEv
FNDA:1,_ZN23logic_error_fail_7_Test8TestBodyEv
FN:58,_ZN23logic_error_fail_7_TestC1Ev
FNDA:1,_ZN23logic_error_fail_7_TestC1Ev
FN:63,_ZN23logic_error_fail_8_TestC1Ev
FNDA:1,_ZN23logic_error_fail_8_TestC1Ev
FN:63,_ZN23logic_error_fail_8_Test8TestBodyEv
FNDA:1,_ZN23logic_error_fail_8_Test8TestBodyEv
FN:63,_ZN23logic_error_fail_8_TestD0Ev
FNDA:1,_ZN23logic_error_fail_8_TestD0Ev
FN:63,_ZN23logic_error_fail_8_TestD1Ev
FNDA:1,_ZN23logic_error_fail_8_TestD1Ev
FN:68,_ZN23logic_error_fail_9_TestD0Ev
FNDA:1,_ZN23logic_error_fail_9_TestD0Ev
FN:68,_ZN23logic_error_fail_9_TestD1Ev
FNDA:1,_ZN23logic_error_fail_9_TestD1Ev
FN:68,_ZN23logic_error_fail_9_Test8TestBodyEv
FNDA:1,_ZN23logic_error_fail_9_Test8TestBodyEv
FN:68,_ZN23logic_error_fail_9_TestC1Ev
FNDA:1,_ZN23logic_error_fail_9_TestC1Ev
FN:73,_ZN24logic_error_fail_10_TestD0Ev
FNDA:1,_ZN24logic_error_fail_10_TestD0Ev
FN:73,_ZN24logic_error_fail_10_TestD1Ev
FNDA:1,_ZN24logic_error_fail_10_TestD1Ev
FN:73,_ZN24logic_error_fail_10_Test8TestBodyEv
FNDA:1,_ZN24logic_error_fail_10_Test8TestBodyEv
FN:73,_ZN24logic_error_fail_10_TestC1Ev
FNDA:1,_ZN24logic_error_fail_10_TestC1Ev
FN:78,_ZN24logic_error_fail_11_TestD1Ev
FNDA:1,_ZN24logic_error_fail_11_TestD1Ev
FN:78,_ZN24logic_error_fail_11_Test8TestBodyEv
FNDA:1,_ZN24logic_error_fail_11_Test8TestBodyEv
FN:78,_ZN24logic_error_fail_11_TestC1Ev
FNDA:1,_ZN24logic_error_fail_11_TestC1Ev
FN:78,_ZN24logic_error_fail_11_TestD0Ev
FNDA:1,_ZN24logic_error_fail_11_TestD0Ev
FN:83,_ZN24logic_error_fail_12_TestC1Ev
FNDA:1,_ZN24logic_error_fail_12_TestC1Ev
FN:83,_ZN24logic_error_fail_12_TestD1Ev
FNDA:1,_ZN24logic_error_fail_12_TestD1Ev
FN:83,_ZN24logic_error_fail_12_TestD0Ev
FNDA:1,_ZN24logic_error_fail_12_TestD0Ev
FN:83,_ZN24logic_error_fail_12_Test8TestBodyEv
FNDA:1,_ZN24logic_error_fail_12_Test8TestBodyEv
FN:88,_ZN24logic_error_fail_13_TestC1Ev
FNDA:1,_ZN24logic_error_fail_13_TestC1Ev
FN:88,_ZN24logic_error_fail_13_Test8TestBodyEv
FNDA:1,_ZN24logic_error_fail_13_Test8TestBodyEv
FN:88,_ZN24logic_error_fail_13_TestD1Ev
FNDA:1,_ZN24logic_error_fail_13_TestD1Ev
FN:88,_ZN24logic_error_fail_13_TestD0Ev
FNDA:1,_ZN24logic_error_fail_13_TestD0Ev
FN:93,_ZN24logic_error_fail_14_Test8TestBodyEv
FNDA:1,_ZN24logic_error_fail_14_Test8TestBodyEv
FN:93,_ZN24logic_error_fail_14_TestC1Ev
FNDA:1,_ZN24logic_error_fail_14_TestC1Ev
FN:93,_ZN24logic_error_fail_14_TestD1Ev
FNDA:1,_ZN24logic_error_fail_14_TestD1Ev
FN:93,_ZN24logic_error_fail_14_TestD0Ev
FNDA:1,_ZN24logic_error_fail_14_TestD0Ev
FN:98,_ZN24logic_error_fail_15_Test8TestBodyEv
FNDA:1,_ZN24logic_error_fail_15_Test8TestBodyEv
FN:98,_ZN24logic_error_fail_15_TestC1Ev
FNDA:1,_ZN24logic_error_fail_15_TestC1Ev
FN:98,_ZN24logic_error_fail_15_TestD1Ev
FNDA:1,_ZN24logic_error_fail_15_TestD1Ev
FN:98,_ZN24logic_error_fail_15_TestD0Ev
FNDA:1,_ZN24logic_error_fail_15_TestD0Ev
FN:103,_ZN24logic_error_fail_16_Test8TestBodyEv
FNDA:1,_ZN24logic_error_fail_16_Test8TestBodyEv
FN:103,_ZN24logic_error_fail_16_TestD1Ev
FNDA:1,_ZN24logic_error_fail_16_TestD1Ev
FN:103,_ZN24logic_error_fail_16_TestD0Ev
FNDA:1,_ZN24logic_error_fail_16_TestD0Ev
FN:103,_ZN24logic_error_fail_16_TestC1Ev
FNDA:1,_ZN24logic_error_fail_16_TestC1Ev
FN:108,_ZN24logic_error_fail_17_Test8TestBodyEv
FNDA:1,_ZN24logic_error_fail_17_Test8TestBodyEv
FN:108,_ZN24logic_error_fail_17_TestD1Ev
FNDA:1,_ZN24logic_error_fail_17_TestD1Ev
FN:108,_ZN24logic_error_fail_17_TestD0Ev
FNDA:1,_ZN24logic_error_fail_17_TestD0Ev
FN:108,_ZN24logic_error_fail_17_TestC1Ev
FNDA:1,_ZN24logic_error_fail_17_TestC1Ev
FN:113,_ZN24logic_error_fail_18_TestD1Ev
FNDA:1,_ZN24logic_error_fail_18_TestD1Ev
FN:113,_ZN24logic_error_fail_18_Test8TestBodyEv
FNDA:1,_ZN24logic_error_fail_18_Test8TestBodyEv
FN:113,_ZN24logic_error_fail_18_TestD0Ev
FNDA:1,_ZN24logic_error_fail_18_TestD0Ev
FN:113,_ZN24logic_error_fail_18_TestC1Ev
FNDA:1,_ZN24logic_error_fail_18_TestC1Ev
FN:118,_ZN24logic_error_fail_19_TestD1Ev
FNDA:1,_ZN24logic_error_fail_19_TestD1Ev
FN:118,_ZN24logic_error_fail_19_Test8TestBodyEv
FNDA:1,_ZN24logic_error_fail_19_Test8TestBodyEv
FN:118,_ZN24logic_error_fail_19_TestD0Ev
FNDA:1,_ZN24logic_error_fail_19_TestD0Ev
FN:118,_ZN24logic_error_fail_19_TestC1Ev
FNDA:1,_ZN24logic_error_fail_19_TestC1Ev
FN:123,_ZN24logic_error_fail_20_Test8TestBodyEv
FNDA:1,_ZN24logic_error_fail_20_Test8TestBodyEv
FN:123,_ZN24logic_error_fail_20_TestD1Ev
FNDA:1,_ZN24logic_error_fail_20_TestD1Ev
FN:123,_ZN24logic_error_fail_20_TestD0Ev
FNDA:1,_ZN24logic_error_fail_20_TestD0Ev
FN:123,_ZN24logic_error_fail_20_TestC1Ev
FNDA:1,_ZN24logic_error_fail_20_TestC1Ev
FNF:92
FNH:92
DA:5,1
DA:5,1
DA:5,1
DA:5,1
DA:6,1
DA:7,3
DA:19,1
DA:19,1
DA:19,1
DA:19,1
DA:20,1
DA:21,3
DA:24,1
DA:24,1
DA:24,1
DA:24,1
DA:25,1
DA:26,3
DA:29,1
DA:29,1
DA:29,1
DA:29,1
DA:30,1
DA:31,3
DA:33,1
DA:33,1
DA:33,1
DA:33,1
DA:34,1
DA:35,3
DA:38,1
DA:38,1
DA:38,1
DA:38,1
DA:39,1
DA:40,3
DA:43,1
DA:43,1
DA:43,1
DA:43,1
DA:44,1
DA:45,3
DA:48,1
DA:48,1
DA:48,1
DA:48,1
DA:49,1
DA:50,3
DA:53,1
DA:53,1
DA:53,1
DA:53,1
DA:54,1
DA:55,3
DA:58,1
DA:58,1
DA:58,1
DA:58,1
DA:59,1
DA:60,3
DA:63,1
DA:63,1
DA:63,1
DA:63,1
DA:64,1
DA:65,3
DA:68,1
DA:68,1
DA:68,1
DA:68,1
DA:69,1
DA:70,3
DA:73,1
DA:73,1
DA:73,1
DA:73,1
DA:74,1
DA:75,3
DA:78,1
DA:78,1
DA:78,1
DA:78,1
DA:79,1
DA:80,3
DA:83,1
DA:83,1
DA:83,1
DA:83,1
DA:84,1
DA:85,3
DA:88,1
DA:88,1
DA:88,1
DA:88,1
DA:89,1
DA:90,3
DA:93,1
DA:93,1
DA:93,1
DA:93,1
DA:94,1
DA:95,3
DA:98,1
DA:98,1
DA:98,1
DA:98,1
DA:99,1
DA:100,3
DA:103,1
DA:103,1
DA:103,1
DA:103,1
DA:104,1
DA:105,3
DA:108,1
DA:108,1
DA:108,1
DA:108,1
DA:109,1
DA:110,3
DA:113,1
DA:113,1
DA:113,1
DA:113,1
DA:114,1
DA:115,5
DA:118,1
DA:118,1
DA:118,1
DA:118,1
DA:119,1
DA:120,5
DA:123,1
DA:123,1
DA:123,1
DA:123,1
DA:124,1
DA:125,5
LF:138
LH:138
end_of_record
SF:/Users/bernarda/Projects_s21/cpp/SmartCalc/SmartCalc2/model/token.h
FN:89,_ZN5TokenD1Ev
FNDA:0,_ZN5TokenD1Ev
FNF:1
FNH:0
DA:89,0
LF:1
LH:0
end_of_record
TN:SmartCalc_V2_test_cov
SF:/Users/bernarda/Projects_s21/cpp/SmartCalc/SmartCalc2/model/token.h
FN:89,_ZN5TokenD1Ev
FNDA:0,_ZN5TokenD1Ev
FNF:1
FNH:0
DA:89,0
LF:1
LH:0
end_of_record
SF:/Users/bernarda/Projects_s21/cpp/SmartCalc/SmartCalc2/model/token.cc
FN:3,_ZN5TokenC1ERKNSt7__cxx1112basic_stringIcSt11char_traitsIcESaIcEEE10Precedence13Associativity13OperationTypedSt7variantIJSt8functionIFddEESC_IFdddEEDnEE
FNDA:1855,_ZN5TokenC1ERKNSt7__cxx1112basic_stringIcSt11char_traitsIcESaIcEEE10Precedence13Associativity13OperationTypedSt7variantIJSt8functionIFddEESC_IFdddEEDnEE
FN:3,_ZN5TokenC2ERKNSt7__cxx1112basic_stringIcSt11char_traitsIcESaIcEEE10Precedence13Associativity13OperationTypedSt7variantIJSt8functionIFddEESC_IFdddEEDnEE
FNDA:0,_ZN5TokenC2ERKNSt7__cxx1112basic_stringIcSt11char_traitsIcESaIcEEE10Precedence13Associativity13OperationTypedSt7variantIJSt8functionIFddEESC_IFdddEEDnEE
FN:13,_ZNK5Token7GetNameB5cxx11Ev
FNDA:1013,_ZNK5Token7GetNameB5cxx11Ev
FN:14,_ZNK5Token13GetPrecedenceEv
FNDA:1561,_ZNK5Token13GetPrecedenceEv
FN:15,_ZNK5Token16GetAssociativityEv
FNDA:17,_ZNK5Token16GetAssociativityEv
FN:16,_ZNK5Token16GetOperationTypeEv
FNDA:560,_ZNK5Token16GetOperationTypeEv
FN:17,_ZNK5Token8GetValueEv
FNDA:118,_ZNK5Token8GetValueEv
FN:18,_ZNK5Token11GetFunctionEv
FNDA:291,_ZNK5Token11GetFunctionEv
FN:20,_ZN5Token10MakeNumberENSt7__cxx1112basic_stringIcSt11char_traitsIcESaIcEEEd
FNDA:137,_ZN5Token10MakeNumberENSt7__cxx1112basic_stringIcSt11char_traitsIcESaIcEEEd
FN:25,_ZN5Token17MakeUnaryNegationEv
FNDA:18,_ZN5Token17MakeUnaryNegationEv
FN:26,_ZZN5Token17MakeUnaryNegationEvENKUldE_clEd
FNDA:17,_ZZN5Token17MakeUnaryNegationEvENKUldE_clEd
FN:30,_Z14CreateTokenMapRSt3mapINSt7__cxx1112basic_stringIcSt11char_traitsIcESaIcEEE5TokenSt4lessIS5_ESaISt4pairIKS5_S6_EEE
FNDA:68,_Z14CreateTokenMapRSt3mapINSt7__cxx1112basic_stringIcSt11char_traitsIcESaIcEEE5TokenSt4lessIS5_ESaISt4pairIKS5_S6_EEE
FN:37,_ZZ14CreateTokenMapRSt3mapINSt7__cxx1112basic_stringIcSt11char_traitsIcESaIcEEE5TokenSt4lessIS5_ESaISt4pairIKS5_S6_EEEENKUlddE_clEdd
FNDA:25,_ZZ14CreateTokenMapRSt3mapINSt7__cxx1112basic_stringIcSt11char_traitsIcESaIcEEE5TokenSt4lessIS5_ESaISt4pairIKS5_S6_EEEENKUlddE_clEdd
FN:38,_ZZ14CreateTokenMapRSt3mapINSt7__cxx1112basic_stringIcSt11char_traitsIcESaIcEEE5TokenSt4lessIS5_ESaISt4pairIKS5_S6_EEEENKUlddE0_clEdd
FNDA:14,_ZZ14CreateTokenMapRSt3mapINSt7__cxx1112basic_stringIcSt11char_traitsIcESaIcEEE5TokenSt4lessIS5_ESaISt4pairIKS5_S6_EEEENKUlddE0_clEdd
FN:39,_ZZ14CreateTokenMapRSt3mapINSt7__cxx1112basic_stringIcSt11char_traitsIcESaIcEEE5TokenSt4lessIS5_ESaISt4pairIKS5_S6_EEEENKUlddE1_clEdd
FNDA:33,_ZZ14CreateTokenMapRSt3mapINSt7__cxx1112basic_stringIcSt11char_traitsIcESaIcEEE5TokenSt4lessIS5_ESaISt4pairIKS5_S6_EEEENKUlddE1_clEdd
FN:40,_ZZ14CreateTokenMapRSt3mapINSt7__cxx1112basic_stringIcSt11char_traitsIcESaIcEEE5TokenSt4lessIS5_ESaISt4pairIKS5_S6_EEEENKUlddE2_clEdd
FNDA:6,_ZZ14CreateTokenMapRSt3mapINSt7__cxx1112basic_stringIcSt11char_traitsIcESaIcEEE5TokenSt4lessIS5_ESaISt4pairIKS5_S6_EEEENKUlddE2_clEdd
FNF:16
FNH:15
DA:3,1855
DA:5,1855
DA:11,1855
DA:3,0
DA:5,0
DA:11,0
DA:13,1013
DA:14,1561
DA:15,17
DA:16,560
DA:17,118
DA:18,291
DA:20,137
DA:21,274
DA:22,137
DA:23,137
DA:25,18
DA:26,71
DA:27,18
DA:28,18
DA:30,68
DA:32,68
DA:33,136
DA:34,136
DA:35,136
DA:36,136
DA:37,161
DA:38,150
DA:39,169
DA:40,142
DA:41,136
DA:42,136
DA:43,136
DA:44,136
DA:45,136
DA:46,136
DA:47,136
DA:48,136
DA:49,136
DA:50,136
DA:51,136
DA:53,136
DA:54,136
DA:55,136
DA:56,136
DA:57,136
DA:58,136
DA:59,5168
DA:60,68
DA:61,68
LF:50
LH:47
end_of_record
