TN:SmartCalc_V2_test_cov
SF:/Users/bernarda/Projects_s21/cpp/SmartCalc/src/model/token.h
FN:84,_ZN5TokenC1Ev
FNDA:133,_ZN5TokenC1Ev
FN:88,_ZN5TokenD1Ev
FNDA:5181,_ZN5TokenD1Ev
FNF:2
FNH:2
DA:84,133
DA:88,5181
LF:2
LH:2
end_of_record
SF:/Users/bernarda/Projects_s21/cpp/SmartCalc/src/model/calculator.cc
FN:3,_ZN10Calculator14LoadExpressionERKNSt7__cxx1112basic_stringIcSt11char_traitsIcESaIcEEE
FNDA:40,_ZN10Calculator14LoadExpressionERKNSt7__cxx1112basic_stringIcSt11char_traitsIcESaIcEEE
FN:18,_ZN10Calculator14CalculateValueEd
FNDA:40,_ZN10Calculator14CalculateValueEd
FN:23,_ZN10Calculator14CalculateValueEv
FNDA:0,_ZN10Calculator14CalculateValueEv
FN:25,_ZN10Calculator14CalculateGraphEidd
FNDA:0,_ZN10Calculator14CalculateGraphEidd
FN:38,_ZN10Calculator18ConvertToLowercaseEv
FNDA:40,_ZN10Calculator18ConvertToLowercaseEv
FN:46,_ZN10Calculator7ParsingEv
FNDA:40,_ZN10Calculator7ParsingEv
FN:61,_ZN10Calculator10ReadNumberERNSt7__cxx1112basic_stringIcSt11char_traitsIcESaIcEEERm
FNDA:111,_ZN10Calculator10ReadNumberERNSt7__cxx1112basic_stringIcSt11char_traitsIcESaIcEEERm
FN:75,_ZN10Calculator8ReadWordERNSt7__cxx1112basic_stringIcSt11char_traitsIcESaIcEEERm
FNDA:46,_ZN10Calculator8ReadWordERNSt7__cxx1112basic_stringIcSt11char_traitsIcESaIcEEERm
FN:84,_ZN10Calculator9PushTokenENSt7__cxx1112basic_stringIcSt11char_traitsIcESaIcEEE
FNDA:288,_ZN10Calculator9PushTokenENSt7__cxx1112basic_stringIcSt11char_traitsIcESaIcEEE
FN:105,_ZN10Calculator5CheckEv
FNDA:40,_ZN10Calculator5CheckEv
FN:122,_ZN10Calculator13CheckBracketsEv
FNDA:40,_ZN10Calculator13CheckBracketsEv
FN:165,_ZN10Calculator21ShuntingYardAlgorithmEv
FNDA:40,_ZN10Calculator21ShuntingYardAlgorithmEv
FN:209,_ZN10Calculator17FromInputToOutputEv
FNDA:122,_ZN10Calculator17FromInputToOutputEv
FN:214,_ZN10Calculator16FromInputToStackEv
FNDA:206,_ZN10Calculator16FromInputToStackEv
FN:219,_ZN10Calculator17FromStackToOutputEv
FNDA:137,_ZN10Calculator17FromStackToOutputEv
FN:224,_ZN10Calculator26PostfixNotationCalculationEd
FNDA:40,_ZN10Calculator26PostfixNotationCalculationEd
FN:231,_ZZN10Calculator26PostfixNotationCalculationEdENKUlSt8functionIFddEEE_clES2_
FNDA:55,_ZZN10Calculator26PostfixNotationCalculationEdENKUlSt8functionIFddEEE_clES2_
FN:240,_ZZN10Calculator26PostfixNotationCalculationEdENKUlSt8functionIFdddEEE0_clES2_
FNDA:82,_ZZN10Calculator26PostfixNotationCalculationEdENKUlSt8functionIFdddEEE0_clES2_
FN:251,_ZZN10Calculator26PostfixNotationCalculationEdENKUlT_E1_clIDnEEDaS0_
FNDA:113,_ZZN10Calculator26PostfixNotationCalculationEdENKUlT_E1_clIDnEEDaS0_
FN:263,_ZN10Calculator8ToResultEv
FNDA:113,_ZN10Calculator8ToResultEv
FN:268,_ZN10Calculator8ToResultEd
FNDA:146,_ZN10Calculator8ToResultEd
FN:273,_ZN10Calculator10FromResultEv
FNDA:259,_ZN10Calculator10FromResultEv
FNF:22
FNH:20
DA:3,40
DA:4,40
DA:5,40
DA:6,40
DA:7,40
DA:8,40
DA:9,40
DA:10,40
DA:11,40
DA:12,40
DA:13,40
DA:14,40
DA:15,40
DA:16,40
DA:18,40
DA:19,40
DA:20,40
DA:23,0
DA:25,0
DA:27,0
DA:28,0
DA:29,0
DA:30,0
DA:31,0
DA:33,0
DA:35,0
DA:38,40
DA:39,80
DA:40,743
DA:41,703
DA:43,40
DA:44,40
DA:46,40
DA:47,40
DA:48,439
DA:49,399
DA:50,111
DA:51,288
DA:52,46
DA:54,242
DA:55,242
DA:58,40
DA:59,40
DA:61,111
DA:62,222
DA:64,222
DA:65,222
DA:66,111
DA:67,222
DA:68,111
DA:69,111
DA:70,222
DA:71,111
DA:72,111
DA:73,111
DA:75,46
DA:76,92
DA:78,92
DA:79,46
DA:80,46
DA:81,46
DA:82,46
DA:84,288
DA:85,288
DA:86,576
DA:87,288
DA:88,411
DA:89,62
DA:90,61
DA:91,322
DA:92,24
DA:93,44
DA:94,22
DA:95,22
DA:98,264
DA:101,0
DA:103,288
DA:105,437
DA:106,437
DA:107,754
DA:108,357
DA:109,23
DA:110,0
DA:112,0
DA:113,0
DA:116,397
DA:117,397
DA:119,40
DA:120,40
DA:122,40
DA:123,40
DA:124,40
DA:125,404
DA:126,364
DA:127,36
DA:128,328
DA:129,69
DA:130,69
DA:131,0
DA:133,69
DA:134,0
DA:136,259
DA:137,33
DA:138,33
DA:139,33
DA:140,33
DA:141,33
DA:142,33
DA:144,0
DA:145,0
DA:147,226
DA:148,82
DA:149,0
DA:153,364
DA:154,364
DA:156,40
DA:157,0
DA:159,40
DA:160,0
DA:162,40
DA:163,40
DA:165,437
DA:166,437
DA:167,397
DA:168,122
DA:169,275
DA:170,55
DA:171,220
DA:172,111
DA:173,70
DA:174,184
DA:175,42
DA:176,29
DA:177,17
DA:178,29
DA:180,82
DA:181,138
DA:182,69
DA:183,69
DA:184,112
DA:185,43
DA:187,69
DA:188,69
DA:190,0
DA:192,133
DA:193,64
DA:194,33
DA:196,69
DA:198,0
DA:201,72
DA:202,32
DA:203,0
DA:205,32
DA:207,40
DA:209,122
DA:210,122
DA:211,122
DA:212,122
DA:214,206
DA:215,206
DA:216,206
DA:217,206
DA:219,137
DA:220,137
DA:221,137
DA:222,137
DA:224,40
DA:225,40
DA:226,299
DA:227,259
DA:228,9
DA:230,250
DA:231,250
DA:232,55
DA:233,55
DA:235,0
DA:236,0
DA:237,0
DA:239,55
DA:240,82
DA:241,82
DA:242,82
DA:243,82
DA:244,82
DA:246,0
DA:247,0
DA:248,0
DA:250,82
DA:251,113
DA:252,113
DA:253,113
DA:254,500
DA:257,40
DA:258,0
DA:260,40
DA:263,113
DA:264,113
DA:265,113
DA:266,113
DA:268,146
DA:269,146
DA:270,146
DA:271,146
DA:273,259
DA:274,259
DA:275,259
DA:276,259
LF:207
LH:177
end_of_record
TN:SmartCalc_V2_test_cov
SF:/Users/bernarda/Projects_s21/cpp/SmartCalc/src/model/check.cc
FN:10,_Z11CheckLengthNSt7__cxx1112basic_stringIcSt11char_traitsIcESaIcEEE
FNDA:40,_Z11CheckLengthNSt7__cxx1112basic_stringIcSt11char_traitsIcESaIcEEE
FN:17,_Z13CheckVariabled
FNDA:40,_Z13CheckVariabled
FN:21,_Z19CheckNumberOfPointsi
FNDA:0,_Z19CheckNumberOfPointsi
FN:30,_Z10CheckRangedd
FNDA:0,_Z10CheckRangedd
FNF:4
FNH:2
DA:10,40
DA:11,40
DA:12,0
DA:14,40
DA:15,40
DA:17,40
DA:18,40
DA:19,40
DA:21,0
DA:22,0
DA:23,0
DA:25,0
DA:26,0
DA:27,0
DA:28,0
DA:30,0
DA:31,0
DA:32,0
DA:34,0
DA:35,0
DA:36,0
LF:21
LH:7
end_of_record
TN:SmartCalc_V2_test_cov
SF:/Users/bernarda/Projects_s21/cpp/SmartCalc/src/model/token.h
FN:88,_ZN5TokenD1Ev
FNDA:0,_ZN5TokenD1Ev
FNF:1
FNH:0
DA:88,0
LF:1
LH:0
end_of_record
SF:/Users/bernarda/Projects_s21/cpp/SmartCalc/src/model/calculator.h
FN:26,_ZN10CalculatorC1Ev
FNDA:40,_ZN10CalculatorC1Ev
FN:27,_ZN10CalculatorD1Ev
FNDA:40,_ZN10CalculatorD1Ev
FNF:2
FNH:2
DA:26,40
DA:27,40
LF:2
LH:2
end_of_record
SF:/Users/bernarda/Projects_s21/cpp/SmartCalc/src/model/model.cc
FN:5,_ZN5Model9CalculateENSt7__cxx1112basic_stringIcSt11char_traitsIcESaIcEEE
FNDA:36,_ZN5Model9CalculateENSt7__cxx1112basic_stringIcSt11char_traitsIcESaIcEEE
FN:9,_ZN5Model9CalculateENSt7__cxx1112basic_stringIcSt11char_traitsIcESaIcEEEd
FNDA:40,_ZN5Model9CalculateENSt7__cxx1112basic_stringIcSt11char_traitsIcESaIcEEEd
FN:22,_ZN5Model9CalculateENSt7__cxx1112basic_stringIcSt11char_traitsIcESaIcEEEidd
FNDA:0,_ZN5Model9CalculateENSt7__cxx1112basic_stringIcSt11char_traitsIcESaIcEEEidd
FNF:3
FNH:2
DA:5,36
DA:6,36
DA:9,40
DA:10,80
DA:11,40
DA:12,80
DA:14,40
DA:15,40
DA:16,0
DA:17,0
DA:19,80
DA:22,0
DA:24,0
DA:25,0
DA:26,0
DA:28,0
DA:29,0
DA:30,0
DA:31,0
DA:33,0
LF:20
LH:9
end_of_record
TN:SmartCalc_V2_test_cov
SF:/Users/bernarda/Projects_s21/cpp/SmartCalc/src/tests/SmartCalc_V2_test.cc
FN:7,_ZN20calculation_add_TestC1Ev
FNDA:1,_ZN20calculation_add_TestC1Ev
FN:7,_ZN20calculation_add_Test8TestBodyEv
FNDA:1,_ZN20calculation_add_Test8TestBodyEv
FN:7,_ZN20calculation_add_TestD1Ev
FNDA:1,_ZN20calculation_add_TestD1Ev
FN:7,_ZN20calculation_add_TestD0Ev
FNDA:1,_ZN20calculation_add_TestD0Ev
FN:12,_ZN20calculation_sum_TestC1Ev
FNDA:1,_ZN20calculation_sum_TestC1Ev
FN:12,_ZN20calculation_sum_Test8TestBodyEv
FNDA:1,_ZN20calculation_sum_Test8TestBodyEv
FN:12,_ZN20calculation_sum_TestD1Ev
FNDA:1,_ZN20calculation_sum_TestD1Ev
FN:12,_ZN20calculation_sum_TestD0Ev
FNDA:1,_ZN20calculation_sum_TestD0Ev
FN:17,_ZN20calculation_mul_TestC1Ev
FNDA:1,_ZN20calculation_mul_TestC1Ev
FN:17,_ZN20calculation_mul_Test8TestBodyEv
FNDA:1,_ZN20calculation_mul_Test8TestBodyEv
FN:17,_ZN20calculation_mul_TestD0Ev
FNDA:1,_ZN20calculation_mul_TestD0Ev
FN:17,_ZN20calculation_mul_TestD1Ev
FNDA:1,_ZN20calculation_mul_TestD1Ev
FN:22,_ZN20calculation_div_TestC1Ev
FNDA:1,_ZN20calculation_div_TestC1Ev
FN:22,_ZN20calculation_div_Test8TestBodyEv
FNDA:1,_ZN20calculation_div_Test8TestBodyEv
FN:22,_ZN20calculation_div_TestD1Ev
FNDA:1,_ZN20calculation_div_TestD1Ev
FN:22,_ZN20calculation_div_TestD0Ev
FNDA:1,_ZN20calculation_div_TestD0Ev
FN:28,_ZN20calculation_mod_Test8TestBodyEv
FNDA:1,_ZN20calculation_mod_Test8TestBodyEv
FN:28,_ZN20calculation_mod_TestD1Ev
FNDA:1,_ZN20calculation_mod_TestD1Ev
FN:28,_ZN20calculation_mod_TestD0Ev
FNDA:1,_ZN20calculation_mod_TestD0Ev
FN:28,_ZN20calculation_mod_TestC1Ev
FNDA:1,_ZN20calculation_mod_TestC1Ev
FN:34,_ZN28calculation_parenthesis_TestD0Ev
FNDA:1,_ZN28calculation_parenthesis_TestD0Ev
FN:34,_ZN28calculation_parenthesis_TestD1Ev
FNDA:1,_ZN28calculation_parenthesis_TestD1Ev
FN:34,_ZN28calculation_parenthesis_TestC1Ev
FNDA:1,_ZN28calculation_parenthesis_TestC1Ev
FN:34,_ZN28calculation_parenthesis_Test8TestBodyEv
FNDA:1,_ZN28calculation_parenthesis_Test8TestBodyEv
FN:39,_ZN20calculation_sin_TestC1Ev
FNDA:1,_ZN20calculation_sin_TestC1Ev
FN:39,_ZN20calculation_sin_Test8TestBodyEv
FNDA:1,_ZN20calculation_sin_Test8TestBodyEv
FN:39,_ZN20calculation_sin_TestD1Ev
FNDA:1,_ZN20calculation_sin_TestD1Ev
FN:39,_ZN20calculation_sin_TestD0Ev
FNDA:1,_ZN20calculation_sin_TestD0Ev
FN:44,_ZN20calculation_cos_TestC1Ev
FNDA:1,_ZN20calculation_cos_TestC1Ev
FN:44,_ZN20calculation_cos_TestD1Ev
FNDA:1,_ZN20calculation_cos_TestD1Ev
FN:44,_ZN20calculation_cos_TestD0Ev
FNDA:1,_ZN20calculation_cos_TestD0Ev
FN:44,_ZN20calculation_cos_Test8TestBodyEv
FNDA:1,_ZN20calculation_cos_Test8TestBodyEv
FN:49,_ZN20calculation_tan_TestD0Ev
FNDA:1,_ZN20calculation_tan_TestD0Ev
FN:49,_ZN20calculation_tan_TestD1Ev
FNDA:1,_ZN20calculation_tan_TestD1Ev
FN:49,_ZN20calculation_tan_Test8TestBodyEv
FNDA:1,_ZN20calculation_tan_Test8TestBodyEv
FN:49,_ZN20calculation_tan_TestC1Ev
FNDA:1,_ZN20calculation_tan_TestC1Ev
FN:54,_ZN20calculation_log_TestC1Ev
FNDA:1,_ZN20calculation_log_TestC1Ev
FN:54,_ZN20calculation_log_TestD0Ev
FNDA:1,_ZN20calculation_log_TestD0Ev
FN:54,_ZN20calculation_log_TestD1Ev
FNDA:1,_ZN20calculation_log_TestD1Ev
FN:54,_ZN20calculation_log_Test8TestBodyEv
FNDA:1,_ZN20calculation_log_Test8TestBodyEv
FN:59,_ZN19calculation_ln_TestC1Ev
FNDA:1,_ZN19calculation_ln_TestC1Ev
FN:59,_ZN19calculation_ln_Test8TestBodyEv
FNDA:1,_ZN19calculation_ln_Test8TestBodyEv
FN:59,_ZN19calculation_ln_TestD1Ev
FNDA:1,_ZN19calculation_ln_TestD1Ev
FN:59,_ZN19calculation_ln_TestD0Ev
FNDA:1,_ZN19calculation_ln_TestD0Ev
FN:64,_ZN21calculation_sqrt_TestD0Ev
FNDA:1,_ZN21calculation_sqrt_TestD0Ev
FN:64,_ZN21calculation_sqrt_Test8TestBodyEv
FNDA:1,_ZN21calculation_sqrt_Test8TestBodyEv
FN:64,_ZN21calculation_sqrt_TestD1Ev
FNDA:1,_ZN21calculation_sqrt_TestD1Ev
FN:64,_ZN21calculation_sqrt_TestC1Ev
FNDA:1,_ZN21calculation_sqrt_TestC1Ev
FN:69,_ZN21calculation_cbrt_TestC1Ev
FNDA:1,_ZN21calculation_cbrt_TestC1Ev
FN:69,_ZN21calculation_cbrt_Test8TestBodyEv
FNDA:1,_ZN21calculation_cbrt_Test8TestBodyEv
FN:69,_ZN21calculation_cbrt_TestD1Ev
FNDA:1,_ZN21calculation_cbrt_TestD1Ev
FN:69,_ZN21calculation_cbrt_TestD0Ev
FNDA:1,_ZN21calculation_cbrt_TestD0Ev
FN:74,_ZN21calculation_asin_TestD1Ev
FNDA:1,_ZN21calculation_asin_TestD1Ev
FN:74,_ZN21calculation_asin_TestD0Ev
FNDA:1,_ZN21calculation_asin_TestD0Ev
FN:74,_ZN21calculation_asin_Test8TestBodyEv
FNDA:1,_ZN21calculation_asin_Test8TestBodyEv
FN:74,_ZN21calculation_asin_TestC1Ev
FNDA:1,_ZN21calculation_asin_TestC1Ev
FN:79,_ZN21calculation_acos_TestD1Ev
FNDA:1,_ZN21calculation_acos_TestD1Ev
FN:79,_ZN21calculation_acos_TestD0Ev
FNDA:1,_ZN21calculation_acos_TestD0Ev
FN:79,_ZN21calculation_acos_Test8TestBodyEv
FNDA:1,_ZN21calculation_acos_Test8TestBodyEv
FN:79,_ZN21calculation_acos_TestC1Ev
FNDA:1,_ZN21calculation_acos_TestC1Ev
FN:84,_ZN21calculation_atan_TestC1Ev
FNDA:1,_ZN21calculation_atan_TestC1Ev
FN:84,_ZN21calculation_atan_TestD1Ev
FNDA:1,_ZN21calculation_atan_TestD1Ev
FN:84,_ZN21calculation_atan_TestD0Ev
FNDA:1,_ZN21calculation_atan_TestD0Ev
FN:84,_ZN21calculation_atan_Test8TestBodyEv
FNDA:1,_ZN21calculation_atan_Test8TestBodyEv
FN:89,_ZN20calculation_pow_TestD0Ev
FNDA:1,_ZN20calculation_pow_TestD0Ev
FN:89,_ZN20calculation_pow_Test8TestBodyEv
FNDA:1,_ZN20calculation_pow_Test8TestBodyEv
FN:89,_ZN20calculation_pow_TestD1Ev
FNDA:1,_ZN20calculation_pow_TestD1Ev
FN:89,_ZN20calculation_pow_TestC1Ev
FNDA:1,_ZN20calculation_pow_TestC1Ev
FN:94,_ZN19calculation_pi_TestC1Ev
FNDA:1,_ZN19calculation_pi_TestC1Ev
FN:94,_ZN19calculation_pi_TestD0Ev
FNDA:1,_ZN19calculation_pi_TestD0Ev
FN:94,_ZN19calculation_pi_TestD1Ev
FNDA:1,_ZN19calculation_pi_TestD1Ev
FN:94,_ZN19calculation_pi_Test8TestBodyEv
FNDA:1,_ZN19calculation_pi_Test8TestBodyEv
FN:99,_ZN18calculation_e_Test8TestBodyEv
FNDA:1,_ZN18calculation_e_Test8TestBodyEv
FN:99,_ZN18calculation_e_TestD0Ev
FNDA:1,_ZN18calculation_e_TestD0Ev
FN:99,_ZN18calculation_e_TestD1Ev
FNDA:1,_ZN18calculation_e_TestD1Ev
FN:99,_ZN18calculation_e_TestC1Ev
FNDA:1,_ZN18calculation_e_TestC1Ev
FN:104,_ZN20calculation_exp_Test8TestBodyEv
FNDA:1,_ZN20calculation_exp_Test8TestBodyEv
FN:104,_ZN20calculation_exp_TestD0Ev
FNDA:1,_ZN20calculation_exp_TestD0Ev
FN:104,_ZN20calculation_exp_TestD1Ev
FNDA:1,_ZN20calculation_exp_TestD1Ev
FN:104,_ZN20calculation_exp_TestC1Ev
FNDA:1,_ZN20calculation_exp_TestC1Ev
FN:109,_ZN21calculation_fabs_TestD0Ev
FNDA:1,_ZN21calculation_fabs_TestD0Ev
FN:109,_ZN21calculation_fabs_Test8TestBodyEv
FNDA:1,_ZN21calculation_fabs_Test8TestBodyEv
FN:109,_ZN21calculation_fabs_TestC1Ev
FNDA:1,_ZN21calculation_fabs_TestC1Ev
FN:109,_ZN21calculation_fabs_TestD1Ev
FNDA:1,_ZN21calculation_fabs_TestD1Ev
FN:114,_ZN29calculation_expression_1_TestD1Ev
FNDA:1,_ZN29calculation_expression_1_TestD1Ev
FN:114,_ZN29calculation_expression_1_Test8TestBodyEv
FNDA:1,_ZN29calculation_expression_1_Test8TestBodyEv
FN:114,_ZN29calculation_expression_1_TestC1Ev
FNDA:1,_ZN29calculation_expression_1_TestC1Ev
FN:114,_ZN29calculation_expression_1_TestD0Ev
FNDA:1,_ZN29calculation_expression_1_TestD0Ev
FN:119,_ZN29calculation_expression_2_TestD0Ev
FNDA:1,_ZN29calculation_expression_2_TestD0Ev
FN:119,_ZN29calculation_expression_2_Test8TestBodyEv
FNDA:1,_ZN29calculation_expression_2_Test8TestBodyEv
FN:119,_ZN29calculation_expression_2_TestC1Ev
FNDA:1,_ZN29calculation_expression_2_TestC1Ev
FN:119,_ZN29calculation_expression_2_TestD1Ev
FNDA:1,_ZN29calculation_expression_2_TestD1Ev
FN:125,_ZN29calculation_expression_3_Test8TestBodyEv
FNDA:1,_ZN29calculation_expression_3_Test8TestBodyEv
FN:125,_ZN29calculation_expression_3_TestD0Ev
FNDA:1,_ZN29calculation_expression_3_TestD0Ev
FN:125,_ZN29calculation_expression_3_TestD1Ev
FNDA:1,_ZN29calculation_expression_3_TestD1Ev
FN:125,_ZN29calculation_expression_3_TestC1Ev
FNDA:1,_ZN29calculation_expression_3_TestC1Ev
FN:131,_ZN29calculation_expression_5_Test8TestBodyEv
FNDA:1,_ZN29calculation_expression_5_Test8TestBodyEv
FN:131,_ZN29calculation_expression_5_TestD1Ev
FNDA:1,_ZN29calculation_expression_5_TestD1Ev
FN:131,_ZN29calculation_expression_5_TestD0Ev
FNDA:1,_ZN29calculation_expression_5_TestD0Ev
FN:131,_ZN29calculation_expression_5_TestC1Ev
FNDA:1,_ZN29calculation_expression_5_TestC1Ev
FN:136,_ZN29calculation_expression_6_Test8TestBodyEv
FNDA:1,_ZN29calculation_expression_6_Test8TestBodyEv
FN:136,_ZN29calculation_expression_6_TestD1Ev
FNDA:1,_ZN29calculation_expression_6_TestD1Ev
FN:136,_ZN29calculation_expression_6_TestD0Ev
FNDA:1,_ZN29calculation_expression_6_TestD0Ev
FN:136,_ZN29calculation_expression_6_TestC1Ev
FNDA:1,_ZN29calculation_expression_6_TestC1Ev
FN:141,_ZN29calculation_expression_7_TestD1Ev
FNDA:1,_ZN29calculation_expression_7_TestD1Ev
FN:141,_ZN29calculation_expression_7_Test8TestBodyEv
FNDA:1,_ZN29calculation_expression_7_Test8TestBodyEv
FN:141,_ZN29calculation_expression_7_TestC1Ev
FNDA:1,_ZN29calculation_expression_7_TestC1Ev
FN:141,_ZN29calculation_expression_7_TestD0Ev
FNDA:1,_ZN29calculation_expression_7_TestD0Ev
FN:146,_ZN29calculation_expression_8_TestC1Ev
FNDA:1,_ZN29calculation_expression_8_TestC1Ev
FN:146,_ZN29calculation_expression_8_TestD1Ev
FNDA:1,_ZN29calculation_expression_8_TestD1Ev
FN:146,_ZN29calculation_expression_8_TestD0Ev
FNDA:1,_ZN29calculation_expression_8_TestD0Ev
FN:146,_ZN29calculation_expression_8_Test8TestBodyEv
FNDA:1,_ZN29calculation_expression_8_Test8TestBodyEv
FN:152,_ZN29calculation_expression_9_TestC1Ev
FNDA:1,_ZN29calculation_expression_9_TestC1Ev
FN:152,_ZN29calculation_expression_9_TestD1Ev
FNDA:1,_ZN29calculation_expression_9_TestD1Ev
FN:152,_ZN29calculation_expression_9_TestD0Ev
FNDA:1,_ZN29calculation_expression_9_TestD0Ev
FN:152,_ZN29calculation_expression_9_Test8TestBodyEv
FNDA:1,_ZN29calculation_expression_9_Test8TestBodyEv
FN:158,_ZN30calculation_expression_10_TestD1Ev
FNDA:1,_ZN30calculation_expression_10_TestD1Ev
FN:158,_ZN30calculation_expression_10_Test8TestBodyEv
FNDA:1,_ZN30calculation_expression_10_Test8TestBodyEv
FN:158,_ZN30calculation_expression_10_TestC1Ev
FNDA:1,_ZN30calculation_expression_10_TestC1Ev
FN:158,_ZN30calculation_expression_10_TestD0Ev
FNDA:1,_ZN30calculation_expression_10_TestD0Ev
FN:163,_ZN30calculation_expression_11_TestD1Ev
FNDA:1,_ZN30calculation_expression_11_TestD1Ev
FN:163,_ZN30calculation_expression_11_TestD0Ev
FNDA:1,_ZN30calculation_expression_11_TestD0Ev
FN:163,_ZN30calculation_expression_11_TestC1Ev
FNDA:1,_ZN30calculation_expression_11_TestC1Ev
FN:163,_ZN30calculation_expression_11_Test8TestBodyEv
FNDA:1,_ZN30calculation_expression_11_Test8TestBodyEv
FN:169,_ZN30calculation_expression_12_Test8TestBodyEv
FNDA:1,_ZN30calculation_expression_12_Test8TestBodyEv
FN:169,_ZN30calculation_expression_12_TestD0Ev
FNDA:1,_ZN30calculation_expression_12_TestD0Ev
FN:169,_ZN30calculation_expression_12_TestD1Ev
FNDA:1,_ZN30calculation_expression_12_TestD1Ev
FN:169,_ZN30calculation_expression_12_TestC1Ev
FNDA:1,_ZN30calculation_expression_12_TestC1Ev
FN:175,_ZN30calculation_expression_13_TestD1Ev
FNDA:1,_ZN30calculation_expression_13_TestD1Ev
FN:175,_ZN30calculation_expression_13_TestD0Ev
FNDA:1,_ZN30calculation_expression_13_TestD0Ev
FN:175,_ZN30calculation_expression_13_Test8TestBodyEv
FNDA:1,_ZN30calculation_expression_13_Test8TestBodyEv
FN:175,_ZN30calculation_expression_13_TestC1Ev
FNDA:1,_ZN30calculation_expression_13_TestC1Ev
FN:184,_ZN30calculation_expression_14_TestC1Ev
FNDA:1,_ZN30calculation_expression_14_TestC1Ev
FN:184,_ZN30calculation_expression_14_Test8TestBodyEv
FNDA:1,_ZN30calculation_expression_14_Test8TestBodyEv
FN:184,_ZN30calculation_expression_14_TestD1Ev
FNDA:1,_ZN30calculation_expression_14_TestD1Ev
FN:184,_ZN30calculation_expression_14_TestD0Ev
FNDA:1,_ZN30calculation_expression_14_TestD0Ev
FN:189,_ZN30calculation_expression_15_Test8TestBodyEv
FNDA:1,_ZN30calculation_expression_15_Test8TestBodyEv
FN:189,_ZN30calculation_expression_15_TestC1Ev
FNDA:1,_ZN30calculation_expression_15_TestC1Ev
FN:189,_ZN30calculation_expression_15_TestD1Ev
FNDA:1,_ZN30calculation_expression_15_TestD1Ev
FN:189,_ZN30calculation_expression_15_TestD0Ev
FNDA:1,_ZN30calculation_expression_15_TestD0Ev
FN:194,_ZN30calculation_expression_16_TestD1Ev
FNDA:1,_ZN30calculation_expression_16_TestD1Ev
FN:194,_ZN30calculation_expression_16_TestD0Ev
FNDA:1,_ZN30calculation_expression_16_TestD0Ev
FN:194,_ZN30calculation_expression_16_Test8TestBodyEv
FNDA:1,_ZN30calculation_expression_16_Test8TestBodyEv
FN:194,_ZN30calculation_expression_16_TestC1Ev
FNDA:1,_ZN30calculation_expression_16_TestC1Ev
FN:200,_ZN30calculation_expression_17_TestD0Ev
FNDA:1,_ZN30calculation_expression_17_TestD0Ev
FN:200,_ZN30calculation_expression_17_TestD1Ev
FNDA:1,_ZN30calculation_expression_17_TestD1Ev
FN:200,_ZN30calculation_expression_17_Test8TestBodyEv
FNDA:1,_ZN30calculation_expression_17_Test8TestBodyEv
FN:200,_ZN30calculation_expression_17_TestC1Ev
FNDA:1,_ZN30calculation_expression_17_TestC1Ev
FN:206,_ZN30calculation_expression_18_TestC1Ev
FNDA:1,_ZN30calculation_expression_18_TestC1Ev
FN:206,_ZN30calculation_expression_18_TestD0Ev
FNDA:1,_ZN30calculation_expression_18_TestD0Ev
FN:206,_ZN30calculation_expression_18_TestD1Ev
FNDA:1,_ZN30calculation_expression_18_TestD1Ev
FN:206,_ZN30calculation_expression_18_Test8TestBodyEv
FNDA:1,_ZN30calculation_expression_18_Test8TestBodyEv
FN:212,_ZN30calculation_expression_19_TestC1Ev
FNDA:1,_ZN30calculation_expression_19_TestC1Ev
FN:212,_ZN30calculation_expression_19_TestD0Ev
FNDA:1,_ZN30calculation_expression_19_TestD0Ev
FN:212,_ZN30calculation_expression_19_TestD1Ev
FNDA:1,_ZN30calculation_expression_19_TestD1Ev
FN:212,_ZN30calculation_expression_19_Test8TestBodyEv
FNDA:1,_ZN30calculation_expression_19_Test8TestBodyEv
FN:218,main
FNDA:1,main
FNF:157
FNH:157
DA:7,1
DA:7,1
DA:7,1
DA:7,1
DA:9,2
DA:12,1
DA:12,1
DA:12,1
DA:12,1
DA:14,2
DA:17,1
DA:17,1
DA:17,1
DA:17,1
DA:19,2
DA:22,1
DA:22,1
DA:22,1
DA:22,1
DA:24,2
DA:28,1
DA:28,1
DA:28,1
DA:28,1
DA:30,2
DA:34,1
DA:34,1
DA:34,1
DA:34,1
DA:36,2
DA:39,1
DA:39,1
DA:39,1
DA:39,1
DA:41,2
DA:44,1
DA:44,1
DA:44,1
DA:44,1
DA:46,2
DA:49,1
DA:49,1
DA:49,1
DA:49,1
DA:51,2
DA:54,1
DA:54,1
DA:54,1
DA:54,1
DA:56,2
DA:59,1
DA:59,1
DA:59,1
DA:59,1
DA:61,2
DA:64,1
DA:64,1
DA:64,1
DA:64,1
DA:66,2
DA:69,1
DA:69,1
DA:69,1
DA:69,1
DA:71,2
DA:74,1
DA:74,1
DA:74,1
DA:74,1
DA:76,2
DA:79,1
DA:79,1
DA:79,1
DA:79,1
DA:81,2
DA:84,1
DA:84,1
DA:84,1
DA:84,1
DA:86,2
DA:89,1
DA:89,1
DA:89,1
DA:89,1
DA:91,2
DA:94,1
DA:94,1
DA:94,1
DA:94,1
DA:96,2
DA:99,1
DA:99,1
DA:99,1
DA:99,1
DA:101,2
DA:104,1
DA:104,1
DA:104,1
DA:104,1
DA:106,2
DA:109,1
DA:109,1
DA:109,1
DA:109,1
DA:111,2
DA:114,1
DA:114,1
DA:114,1
DA:114,1
DA:116,2
DA:119,1
DA:119,1
DA:119,1
DA:119,1
DA:121,2
DA:125,1
DA:125,1
DA:125,1
DA:125,1
DA:127,2
DA:131,1
DA:131,1
DA:131,1
DA:131,1
DA:133,2
DA:136,1
DA:136,1
DA:136,1
DA:136,1
DA:138,2
DA:141,1
DA:141,1
DA:141,1
DA:141,1
DA:143,2
DA:146,1
DA:146,1
DA:146,1
DA:146,1
DA:148,2
DA:152,1
DA:152,1
DA:152,1
DA:152,1
DA:154,2
DA:155,2
DA:158,1
DA:158,1
DA:158,1
DA:158,1
DA:160,2
DA:163,1
DA:163,1
DA:163,1
DA:163,1
DA:165,2
DA:169,1
DA:169,1
DA:169,1
DA:169,1
DA:171,2
DA:175,1
DA:175,1
DA:175,1
DA:175,1
DA:177,2
DA:184,1
DA:184,1
DA:184,1
DA:184,1
DA:186,2
DA:189,1
DA:189,1
DA:189,1
DA:189,1
DA:191,2
DA:194,1
DA:194,1
DA:194,1
DA:194,1
DA:196,2
DA:200,1
DA:200,1
DA:200,1
DA:200,1
DA:202,2
DA:206,1
DA:206,1
DA:206,1
DA:206,1
DA:208,2
DA:212,1
DA:212,1
DA:212,1
DA:212,1
DA:214,2
DA:218,1
DA:219,1
DA:220,1
LF:199
LH:199
end_of_record
TN:SmartCalc_V2_test_cov
SF:/Users/bernarda/Projects_s21/cpp/SmartCalc/src/model/model.h
LF:0
LH:0
end_of_record
TN:SmartCalc_V2_test_cov
SF:/Users/bernarda/Projects_s21/cpp/SmartCalc/src/model/token.h
FN:88,_ZN5TokenD1Ev
FNDA:0,_ZN5TokenD1Ev
FNF:1
FNH:0
DA:88,0
LF:1
LH:0
end_of_record
SF:/Users/bernarda/Projects_s21/cpp/SmartCalc/src/model/token.cc
FN:3,_ZN5TokenC1ERKNSt7__cxx1112basic_stringIcSt11char_traitsIcESaIcEEE10Precedence13Associativity13OperationTypedSt7variantIJSt8functionIFddEESC_IFdddEEDnEE
FNDA:1133,_ZN5TokenC1ERKNSt7__cxx1112basic_stringIcSt11char_traitsIcESaIcEEE10Precedence13Associativity13OperationTypedSt7variantIJSt8functionIFddEESC_IFdddEEDnEE
FN:3,_ZN5TokenC2ERKNSt7__cxx1112basic_stringIcSt11char_traitsIcESaIcEEE10Precedence13Associativity13OperationTypedSt7variantIJSt8functionIFddEESC_IFdddEEDnEE
FNDA:0,_ZN5TokenC2ERKNSt7__cxx1112basic_stringIcSt11char_traitsIcESaIcEEE10Precedence13Associativity13OperationTypedSt7variantIJSt8functionIFddEESC_IFdddEEDnEE
FN:13,_ZN5Token7GetNameB5cxx11Ev
FNDA:1877,_ZN5Token7GetNameB5cxx11Ev
FN:14,_ZN5Token13GetPrecedenceEv
FNDA:1691,_ZN5Token13GetPrecedenceEv
FN:15,_ZN5Token16GetAssociativityEv
FNDA:17,_ZN5Token16GetAssociativityEv
FN:16,_ZN5Token16GetOperationTypeEv
FNDA:791,_ZN5Token16GetOperationTypeEv
FN:17,_ZN5Token8GetValueEv
FNDA:113,_ZN5Token8GetValueEv
FN:18,_ZN5Token11GetFunctionEv
FNDA:250,_ZN5Token11GetFunctionEv
FN:20,_ZN5Token10MakeNumberENSt7__cxx1112basic_stringIcSt11char_traitsIcESaIcEEEd
FNDA:111,_ZN5Token10MakeNumberENSt7__cxx1112basic_stringIcSt11char_traitsIcESaIcEEEd
FN:25,_ZN5Token17MakeUnaryNegationEv
FNDA:22,_ZN5Token17MakeUnaryNegationEv
FN:26,_ZZN5Token17MakeUnaryNegationEvENKUldE_clEd
FNDA:22,_ZZN5Token17MakeUnaryNegationEvENKUldE_clEd
FN:30,_Z14CreateTokenMapRSt3mapINSt7__cxx1112basic_stringIcSt11char_traitsIcESaIcEEE5TokenSt4lessIS5_ESaISt4pairIKS5_S6_EEE
FNDA:40,_Z14CreateTokenMapRSt3mapINSt7__cxx1112basic_stringIcSt11char_traitsIcESaIcEEE5TokenSt4lessIS5_ESaISt4pairIKS5_S6_EEE
FN:37,_ZZ14CreateTokenMapRSt3mapINSt7__cxx1112basic_stringIcSt11char_traitsIcESaIcEEE5TokenSt4lessIS5_ESaISt4pairIKS5_S6_EEEENKUlddE_clEdd
FNDA:24,_ZZ14CreateTokenMapRSt3mapINSt7__cxx1112basic_stringIcSt11char_traitsIcESaIcEEE5TokenSt4lessIS5_ESaISt4pairIKS5_S6_EEEENKUlddE_clEdd
FN:38,_ZZ14CreateTokenMapRSt3mapINSt7__cxx1112basic_stringIcSt11char_traitsIcESaIcEEE5TokenSt4lessIS5_ESaISt4pairIKS5_S6_EEEENKUlddE0_clEdd
FNDA:14,_ZZ14CreateTokenMapRSt3mapINSt7__cxx1112basic_stringIcSt11char_traitsIcESaIcEEE5TokenSt4lessIS5_ESaISt4pairIKS5_S6_EEEENKUlddE0_clEdd
FN:39,_ZZ14CreateTokenMapRSt3mapINSt7__cxx1112basic_stringIcSt11char_traitsIcESaIcEEE5TokenSt4lessIS5_ESaISt4pairIKS5_S6_EEEENKUlddE1_clEdd
FNDA:23,_ZZ14CreateTokenMapRSt3mapINSt7__cxx1112basic_stringIcSt11char_traitsIcESaIcEEE5TokenSt4lessIS5_ESaISt4pairIKS5_S6_EEEENKUlddE1_clEdd
FN:40,_ZZ14CreateTokenMapRSt3mapINSt7__cxx1112basic_stringIcSt11char_traitsIcESaIcEEE5TokenSt4lessIS5_ESaISt4pairIKS5_S6_EEEENKUlddE2_clEdd
FNDA:6,_ZZ14CreateTokenMapRSt3mapINSt7__cxx1112basic_stringIcSt11char_traitsIcESaIcEEE5TokenSt4lessIS5_ESaISt4pairIKS5_S6_EEEENKUlddE2_clEdd
FNF:16
FNH:15
DA:3,1133
DA:5,1133
DA:11,1133
DA:3,0
DA:5,0
DA:11,0
DA:13,1877
DA:14,1691
DA:15,17
DA:16,791
DA:17,113
DA:18,250
DA:20,111
DA:21,222
DA:22,111
DA:23,111
DA:25,22
DA:26,88
DA:27,22
DA:28,22
DA:30,40
DA:32,40
DA:33,80
DA:34,80
DA:35,80
DA:36,80
DA:37,104
DA:38,94
DA:39,103
DA:40,86
DA:41,80
DA:42,80
DA:43,80
DA:44,80
DA:45,80
DA:46,80
DA:47,80
DA:48,80
DA:49,80
DA:50,80
DA:51,80
DA:53,80
DA:54,80
DA:55,80
DA:56,80
DA:57,80
DA:58,80
DA:59,3040
DA:60,40
DA:61,40
LF:50
LH:47
end_of_record
